Component: ARM Compiler 5.06 update 6 (build 750) Tool: armlink [4d35ed]

==============================================================================

Section Cross References

    sl_main.o(i.main) refers to devinit.o(i.INIT_DeviceInit) for INIT_DeviceInit
    sl_main.o(i.main) refers to sample-cli-commands.o(i.vRegisterSampleCLICommands) for vRegisterSampleCLICommands
    sl_main.o(i.main) refers to tasks.o(i.xTaskCreate) for xTaskCreate
    sl_main.o(i.main) refers to tasks.o(i.vTaskStartScheduler) for vTaskStartScheduler
    sl_main.o(i.main) refers to sl_main.o(.data) for AppTask_Handle
    sl_main.o(i.main) refers to usertask.o(i.UserTASK) for UserTASK
    sl_niv.o(i.SSP23_IIC_IRQHandler) refers to dbgtool.o(i.__ARM_common_switch8) for __ARM_common_switch8
    sl_niv.o(i.SSP23_IIC_IRQHandler) refers to sc32f58128_iic.o(i.I2C_deal) for I2C_deal
    sl_niv.o(i.SSP23_IIC_IRQHandler) refers to bsp_iic.o(.bss) for IICInfo
    sl_niv.o(i.SysTick_Handler_notuse) refers to timer4tick.o(.data) for g_u32SysTickNumb
    sl_niv.o(i.TIMER0_IRQHandler) refers to sl_niv.o(.data) for ulHighFrequencyTimerTicks
    sl_niv.o(i.TIMER0_IRQHandler) refers to sc32f58128_timer.o(.data) for TIMER
    usertask.o(i.UserTASK) refers to sc32f58128_gpio.o(i.GPIO_SetLow) for GPIO_SetLow
    usertask.o(i.UserTASK) refers to bsp_spi.o(i.SPI_DEV_SendByte) for SPI_DEV_SendByte
    usertask.o(i.UserTASK) refers to sc32f58128_gpio.o(i.GPIO_SetHigh) for GPIO_SetHigh
    usertask.o(i.UserTASK) refers to tasks.o(i.vTaskDelay) for vTaskDelay
    usertask.o(i.UserTASK) refers to usertask.o(.data) for u16SPItestData
    devinit.o(i.INIT_DeviceInit) refers to devinit.o(i.mg_DeviceSystemInit) for mg_DeviceSystemInit
    devinit.o(i.INIT_DeviceInit) refers to devinit.o(i.mg_DevicePeripheralInit) for mg_DevicePeripheralInit
    devinit.o(i.INIT_DeviceInit) refers to devinit.o(i.mg_SetIRQ) for mg_SetIRQ
    devinit.o(i.INIT_DeviceInit_c1) refers to devinit.o(i.mg_SetIRQ_c1) for mg_SetIRQ_c1
    devinit.o(i.mg_DevicePeripheralInit) refers to bsp_gpio.o(i.BSP_GpioInit) for BSP_GpioInit
    devinit.o(i.mg_DevicePeripheralInit) refers to devinit.o(i.mg_TimerInit) for mg_TimerInit
    devinit.o(i.mg_DevicePeripheralInit) refers to bsp_spi.o(i.BSP_SpiInit) for BSP_SpiInit
    devinit.o(i.mg_DeviceSystemInit) refers to sc32f58128_sysclkcfg.o(i.SysClockConfig) for SysClockConfig
    devinit.o(i.mg_DeviceSystemInit) refers to sc32f58128_sysclkcfg.o(i.SysClkDivSel) for SysClkDivSel
    devinit.o(i.mg_DeviceSystemInit) refers to system_sc32f58128.o(i.SystemCoreClockUpdate) for SystemCoreClockUpdate
    devinit.o(i.mg_DeviceSystemInit) refers to devinit.o(i.mg_CacheInit) for mg_CacheInit
    devinit.o(i.mg_SetIRQ) refers to devinit.o(i.__NVIC_ClearPendingIRQ) for __NVIC_ClearPendingIRQ
    devinit.o(i.mg_SetIRQ) refers to devinit.o(i.__NVIC_SetPriority) for __NVIC_SetPriority
    devinit.o(i.mg_SetIRQ) refers to devinit.o(i.__NVIC_EnableIRQ) for __NVIC_EnableIRQ
    devinit.o(i.mg_TimerInit) refers to sc32f58128_timer.o(i.TIMER_TmrConfig) for TIMER_TmrConfig
    devinit.o(i.mg_WdtInit) refers to aeabi_sdiv.o(.text) for __aeabi_uidivmod
    devinit.o(i.mg_WdtInit) refers to system_sc32f58128.o(.data) for SystemCoreClock
    bsp_gpio.o(i.BSP_GpioInit) refers to bsp_gpio.o(i.vGPIO_OUT_Init) for vGPIO_OUT_Init
    bsp_gpio.o(i.BSP_GpioInit) refers to bsp_gpio.o(i.vGPIO_IN_Init) for vGPIO_IN_Init
    bsp_gpio.o(i.u8GPIO_PWM_Init) refers to aeabi_sdiv.o(.text) for __aeabi_uidivmod
    bsp_gpio.o(i.u8GPIO_PWM_Init) refers to sc32f58128_gpio.o(i.GPIO_OutputEnable) for GPIO_OutputEnable
    bsp_gpio.o(i.u8GPIO_PWM_Init) refers to sc32f58128_gpio.o(i.GPIO_SetLow) for GPIO_SetLow
    bsp_gpio.o(i.u8GPIO_PWM_Init) refers to bsp_gpio.o(i.__get_PRIMASK) for __get_PRIMASK
    bsp_gpio.o(i.u8GPIO_PWM_Init) refers to bsp_gpio.o(i.__set_PRIMASK) for __set_PRIMASK
    bsp_gpio.o(i.u8GPIO_PWM_Init) refers to bsp_pwm.o(i.PWM_PIN_SEL) for PWM_PIN_SEL
    bsp_gpio.o(i.u8GPIO_PWM_Init) refers to bsp_pwm.o(i.PWM_CFG) for PWM_CFG
    bsp_gpio.o(i.vGPIO_IN_Init) refers to sc32f58128_gpio.o(i.GPIO_OutputDisable) for GPIO_OutputDisable
    bsp_gpio.o(i.vGPIO_OUT_Init) refers to bsp_gpio.o(i.u8GPIO_PWM_Init) for u8GPIO_PWM_Init
    bsp_gpio.o(i.vGPIO_OUT_Init) refers to sc32f58128_gpio.o(i.GPIO_OutputEnable) for GPIO_OutputEnable
    bsp_gpio.o(i.vGPIO_OUT_Init) refers to sc32f58128_gpio.o(i.GPIO_SetLow) for GPIO_SetLow
    bsp_dma.o(i.DMA_Init) refers to sc32f58128_dma.o(.bss) for DmaDataStr
    bsp_dma.o(i.DMA_TranferData2UartTx) refers to bsp_dma.o(.data) for mg_u16SendingDatCnt
    bsp_dma.o(i.DMA_TranferData2UartTx) refers to sc32f58128_dma.o(.bss) for DmaDataStr
    bsp_dma.o(i.SendNotSendData2UartTx) refers to bsp_dma.o(.data) for mg_u16SendingDatCnt
    bsp_dma.o(i.SendNotSendData2UartTx) refers to dbgtool.o(.data) for g_u8TxBuffState
    bsp_dma.o(i.SendNotSendData2UartTx) refers to sc32f58128_dma.o(.bss) for DmaDataStr
    bsp_uart.o(i.BSP_UartInit) refers to sc32f58128_gpio.o(i.GPIO_MuxSel) for GPIO_MuxSel
    bsp_uart.o(i.BSP_UartInit) refers to sc32f58128_gpio.o(i.GPIO_PullUpDownSel) for GPIO_PullUpDownSel
    bsp_uart.o(i.BSP_UartInit) refers to sc32f58128_uart.o(i.UartInit) for UartInit
    bsp_adc.o(i.AD_PIN_SEL) refers to sc32f58128_gpio.o(i.GPIO_ModeSel) for GPIO_ModeSel
    bsp_adc.o(i.BSP_AdcInit) refers to bsp_adc.o(i.AD_PIN_SEL) for AD_PIN_SEL
    bsp_adc.o(i.BSP_AdcInit) refers to sc32f58128_adc.o(i.AdcInit) for AdcInit
    bsp_pwm.o(i.BSP_PwmInit) refers to bsp_pwm.o(i.PWM_PIN_SEL) for PWM_PIN_SEL
    bsp_pwm.o(i.BSP_PwmInit) refers to bsp_pwm.o(i.PWM_CFG) for PWM_CFG
    bsp_pwm.o(i.BSP_PwmInit) refers to bsp_pwm.o(i.PWM_Duty_CFG) for PWM_Duty_CFG
    bsp_pwm.o(i.BSP_PwmInit) refers to bsp_pwm.o(i.PWM_INT_CFG) for PWM_INT_CFG
    bsp_pwm.o(i.BSP_PwmInit) refers to bsp_pwm.o(i.PWM_START) for PWM_START
    bsp_pwm.o(i.PWM_CFG) refers to sc32f58128_pwm.o(.data) for PWM
    bsp_pwm.o(i.PWM_PIN_SEL) refers to dbgtool.o(i.__ARM_common_switch8) for __ARM_common_switch8
    bsp_pwm.o(i.PWM_PIN_SEL) refers to sc32f58128_gpio.o(i.GPIO_MuxSel) for GPIO_MuxSel
    bsp_pwm.o(i.PWM_ResolveIncentiveInit) refers to sc32f58128_pwm.o(.data) for PWM
    bsp_iic.o(i.BSP_I2cInit) refers to sc32f58128_gpio.o(i.GPIO_MuxSel) for GPIO_MuxSel
    bsp_iic.o(i.BSP_I2cInit) refers to sc32f58128_gpio.o(i.GPIO_PullUpDownSel) for GPIO_PullUpDownSel
    bsp_iic.o(i.BSP_I2cInit) refers to sc32f58128_gpio.o(i.GPIO_OutputEnable) for GPIO_OutputEnable
    bsp_iic.o(i.BSP_I2cInit) refers to sc32f58128_gpio.o(i.GPIO_SetHigh) for GPIO_SetHigh
    bsp_iic.o(i.BSP_I2cInit) refers to bsp_iic.o(i.__NVIC_SetPriority) for __NVIC_SetPriority
    bsp_iic.o(i.BSP_I2cInit) refers to sc32f58128_iic.o(i.I2C_Init) for I2C_Init
    bsp_iic.o(i.u16RwI2cBus) refers to bsp_iic.o(i.BSP_IsI2cReady) for BSP_IsI2cReady
    bsp_iic.o(i.u16RwI2cBus) refers to bsp_iic.o(i.BSP_I2cStart) for BSP_I2cStart
    bsp_iic.o(i.u16RwI2cBus) refers to bsp_iic.o(.bss) for strI2cMsg
    bsp_iic.o(i.vRw_IIC) refers to bsp_iic.o(i.u16RwI2cBus) for u16RwI2cBus
    bsp_iic.o(i.vRw_IIC) refers to bsp_iic.o(.bss) for strI2cMsg
    bsp_spi.o(i.BSP_SpiInit) refers to sc32f58128_spi.o(i.SPI_Init) for SPI_Init
    bsp_spi.o(i.BSP_SpiInit) refers to sc32f58128_spi.o(i.SPI_LoopBackCmd) for SPI_LoopBackCmd
    bsp_spi.o(i.BSP_SpiInit) refers to bsp_spi.o(i.InitSPI0Gpio) for InitSPI0Gpio
    bsp_spi.o(i.BSP_SpiInit) refers to bsp_spi.o(.bss) for SPI_Cfg_Init
    bsp_spi.o(i.InitSPI0Gpio) refers to sc32f58128_gpio.o(i.GPIO_OutputEnable) for GPIO_OutputEnable
    bsp_spi.o(i.InitSPI0Gpio) refers to sc32f58128_gpio.o(i.GPIO_MuxSel) for GPIO_MuxSel
    bsp_spi.o(i.InitSPI0Gpio) refers to sc32f58128_gpio.o(i.GPIO_OpenDrainEnable) for GPIO_OpenDrainEnable
    bsp_spi.o(i.InitSPI0Gpio) refers to sc32f58128_gpio.o(i.GPIO_PullUpDownSel) for GPIO_PullUpDownSel
    bsp_spi.o(i.InitSPI0Gpio) refers to sc32f58128_gpio.o(i.GPIO_OutputHighCapabilityEnable) for GPIO_OutputHighCapabilityEnable
    bsp_spi.o(i.InitSPI0Gpio) refers to sc32f58128_spi.o(i.SPI_Cmd) for SPI_Cmd
    bsp_spi.o(i.SPI_DEV_SendByte) refers to sc32f58128_spi.o(i.SPI_GetFlagStatus) for SPI_GetFlagStatus
    bsp_spi.o(i.SPI_DEV_SendByte) refers to sc32f58128_spi.o(i.SPI_SendData) for SPI_SendData
    bsp_spi.o(i.SPI_DEV_SendByte) refers to sc32f58128_spi.o(i.SPI_ReceiveData) for SPI_ReceiveData
    timer4tick.o(i.TICK_TimerInit4C0) refers to timer4tick.o(i.TICK_TimerTickInit) for TICK_TimerTickInit
    timer4tick.o(i.TICK_TimerInit4C0) refers to timer4tick.o(.bss) for mg_Tmr4C0
    timer4tick.o(i.TICK_TimerInit4C1) refers to timer4tick.o(i.TICK_TimerTickInit) for TICK_TimerTickInit
    timer4tick.o(i.TICK_TimerInit4C1) refers to timer4tick.o(.bss) for mg_Tmr4C1
    timer4tick.o(i.TICK_TimerTickRunning) refers to aeabi_sdiv.o(.text) for __aeabi_uidivmod
    timer4tick.o(i.TICK_TimerTickRunning) refers to timer4tick.o(.data) for g_u32SysTickNumb
    event_groups.o(i.vEventGroupClearBitsCallback) refers to event_groups.o(i.xEventGroupClearBits) for xEventGroupClearBits
    event_groups.o(i.vEventGroupDelete) refers to tasks.o(i.vTaskSuspendAll) for vTaskSuspendAll
    event_groups.o(i.vEventGroupDelete) refers to tasks.o(i.vTaskRemoveFromUnorderedEventList) for vTaskRemoveFromUnorderedEventList
    event_groups.o(i.vEventGroupDelete) refers to heap_4.o(i.vPortFree) for vPortFree
    event_groups.o(i.vEventGroupDelete) refers to tasks.o(i.xTaskResumeAll) for xTaskResumeAll
    event_groups.o(i.vEventGroupSetBitsCallback) refers to event_groups.o(i.xEventGroupSetBits) for xEventGroupSetBits
    event_groups.o(i.xEventGroupClearBits) refers to port.o(i.vPortEnterCritical) for vPortEnterCritical
    event_groups.o(i.xEventGroupClearBits) refers to port.o(i.vPortExitCritical) for vPortExitCritical
    event_groups.o(i.xEventGroupCreate) refers to heap_4.o(i.pvPortMalloc) for pvPortMalloc
    event_groups.o(i.xEventGroupCreate) refers to list.o(i.vListInitialise) for vListInitialise
    event_groups.o(i.xEventGroupGetBitsFromISR) refers to port.o(.emb_text) for ulSetInterruptMaskFromISR
    event_groups.o(i.xEventGroupSetBits) refers to tasks.o(i.vTaskSuspendAll) for vTaskSuspendAll
    event_groups.o(i.xEventGroupSetBits) refers to tasks.o(i.vTaskRemoveFromUnorderedEventList) for vTaskRemoveFromUnorderedEventList
    event_groups.o(i.xEventGroupSetBits) refers to tasks.o(i.xTaskResumeAll) for xTaskResumeAll
    event_groups.o(i.xEventGroupSync) refers to tasks.o(i.xTaskGetSchedulerState) for xTaskGetSchedulerState
    event_groups.o(i.xEventGroupSync) refers to tasks.o(i.vTaskSuspendAll) for vTaskSuspendAll
    event_groups.o(i.xEventGroupSync) refers to event_groups.o(i.xEventGroupSetBits) for xEventGroupSetBits
    event_groups.o(i.xEventGroupSync) refers to tasks.o(i.vTaskPlaceOnUnorderedEventList) for vTaskPlaceOnUnorderedEventList
    event_groups.o(i.xEventGroupSync) refers to tasks.o(i.xTaskResumeAll) for xTaskResumeAll
    event_groups.o(i.xEventGroupSync) refers to port.o(i.vPortYield) for vPortYield
    event_groups.o(i.xEventGroupSync) refers to tasks.o(i.uxTaskResetEventItemValue) for uxTaskResetEventItemValue
    event_groups.o(i.xEventGroupSync) refers to port.o(i.vPortEnterCritical) for vPortEnterCritical
    event_groups.o(i.xEventGroupSync) refers to port.o(i.vPortExitCritical) for vPortExitCritical
    event_groups.o(i.xEventGroupWaitBits) refers to tasks.o(i.xTaskGetSchedulerState) for xTaskGetSchedulerState
    event_groups.o(i.xEventGroupWaitBits) refers to tasks.o(i.vTaskSuspendAll) for vTaskSuspendAll
    event_groups.o(i.xEventGroupWaitBits) refers to event_groups.o(i.prvTestWaitCondition) for prvTestWaitCondition
    event_groups.o(i.xEventGroupWaitBits) refers to tasks.o(i.vTaskPlaceOnUnorderedEventList) for vTaskPlaceOnUnorderedEventList
    event_groups.o(i.xEventGroupWaitBits) refers to tasks.o(i.xTaskResumeAll) for xTaskResumeAll
    event_groups.o(i.xEventGroupWaitBits) refers to port.o(i.vPortYield) for vPortYield
    event_groups.o(i.xEventGroupWaitBits) refers to tasks.o(i.uxTaskResetEventItemValue) for uxTaskResetEventItemValue
    event_groups.o(i.xEventGroupWaitBits) refers to port.o(i.vPortEnterCritical) for vPortEnterCritical
    event_groups.o(i.xEventGroupWaitBits) refers to port.o(i.vPortExitCritical) for vPortExitCritical
    queue.o(i.pcQueueGetName) refers to queue.o(.bss) for xQueueRegistry
    queue.o(i.prvCopyDataFromQueue) refers to rt_memcpy.o(.text) for __aeabi_memcpy
    queue.o(i.prvCopyDataToQueue) refers to tasks.o(i.xTaskPriorityDisinherit) for xTaskPriorityDisinherit
    queue.o(i.prvCopyDataToQueue) refers to rt_memcpy.o(.text) for __aeabi_memcpy
    queue.o(i.prvInitialiseMutex) refers to queue.o(i.xQueueGenericSend) for xQueueGenericSend
    queue.o(i.prvInitialiseNewQueue) refers to queue.o(i.xQueueGenericReset) for xQueueGenericReset
    queue.o(i.prvIsQueueEmpty) refers to port.o(i.vPortEnterCritical) for vPortEnterCritical
    queue.o(i.prvIsQueueEmpty) refers to port.o(i.vPortExitCritical) for vPortExitCritical
    queue.o(i.prvIsQueueFull) refers to port.o(i.vPortEnterCritical) for vPortEnterCritical
    queue.o(i.prvIsQueueFull) refers to port.o(i.vPortExitCritical) for vPortExitCritical
    queue.o(i.prvNotifyQueueSetContainer) refers to queue.o(i.prvCopyDataToQueue) for prvCopyDataToQueue
    queue.o(i.prvNotifyQueueSetContainer) refers to tasks.o(i.xTaskRemoveFromEventList) for xTaskRemoveFromEventList
    queue.o(i.prvUnlockQueue) refers to port.o(i.vPortEnterCritical) for vPortEnterCritical
    queue.o(i.prvUnlockQueue) refers to queue.o(i.prvNotifyQueueSetContainer) for prvNotifyQueueSetContainer
    queue.o(i.prvUnlockQueue) refers to tasks.o(i.vTaskMissedYield) for vTaskMissedYield
    queue.o(i.prvUnlockQueue) refers to tasks.o(i.xTaskRemoveFromEventList) for xTaskRemoveFromEventList
    queue.o(i.prvUnlockQueue) refers to port.o(i.vPortExitCritical) for vPortExitCritical
    queue.o(i.uxQueueMessagesWaiting) refers to port.o(i.vPortEnterCritical) for vPortEnterCritical
    queue.o(i.uxQueueMessagesWaiting) refers to port.o(i.vPortExitCritical) for vPortExitCritical
    queue.o(i.uxQueueSpacesAvailable) refers to port.o(i.vPortEnterCritical) for vPortEnterCritical
    queue.o(i.uxQueueSpacesAvailable) refers to port.o(i.vPortExitCritical) for vPortExitCritical
    queue.o(i.vQueueAddToRegistry) refers to queue.o(.bss) for xQueueRegistry
    queue.o(i.vQueueDelete) refers to queue.o(i.vQueueUnregisterQueue) for vQueueUnregisterQueue
    queue.o(i.vQueueDelete) refers to heap_4.o(i.vPortFree) for vPortFree
    queue.o(i.vQueueUnregisterQueue) refers to queue.o(.bss) for xQueueRegistry
    queue.o(i.vQueueWaitForMessageRestricted) refers to port.o(i.vPortEnterCritical) for vPortEnterCritical
    queue.o(i.vQueueWaitForMessageRestricted) refers to port.o(i.vPortExitCritical) for vPortExitCritical
    queue.o(i.vQueueWaitForMessageRestricted) refers to tasks.o(i.vTaskPlaceOnEventListRestricted) for vTaskPlaceOnEventListRestricted
    queue.o(i.vQueueWaitForMessageRestricted) refers to queue.o(i.prvUnlockQueue) for prvUnlockQueue
    queue.o(i.xQueueAddToSet) refers to port.o(i.vPortEnterCritical) for vPortEnterCritical
    queue.o(i.xQueueAddToSet) refers to port.o(i.vPortExitCritical) for vPortExitCritical
    queue.o(i.xQueueCreateCountingSemaphore) refers to queue.o(i.xQueueGenericCreate) for xQueueGenericCreate
    queue.o(i.xQueueCreateMutex) refers to queue.o(i.xQueueGenericCreate) for xQueueGenericCreate
    queue.o(i.xQueueCreateMutex) refers to queue.o(i.prvInitialiseMutex) for prvInitialiseMutex
    queue.o(i.xQueueCreateSet) refers to queue.o(i.xQueueGenericCreate) for xQueueGenericCreate
    queue.o(i.xQueueGenericCreate) refers to aeabi_sdiv.o(.text) for __aeabi_uidivmod
    queue.o(i.xQueueGenericCreate) refers to heap_4.o(i.pvPortMalloc) for pvPortMalloc
    queue.o(i.xQueueGenericCreate) refers to queue.o(i.prvInitialiseNewQueue) for prvInitialiseNewQueue
    queue.o(i.xQueueGenericReset) refers to port.o(i.vPortEnterCritical) for vPortEnterCritical
    queue.o(i.xQueueGenericReset) refers to tasks.o(i.xTaskRemoveFromEventList) for xTaskRemoveFromEventList
    queue.o(i.xQueueGenericReset) refers to port.o(i.vPortYield) for vPortYield
    queue.o(i.xQueueGenericReset) refers to list.o(i.vListInitialise) for vListInitialise
    queue.o(i.xQueueGenericReset) refers to port.o(i.vPortExitCritical) for vPortExitCritical
    queue.o(i.xQueueGenericSend) refers to tasks.o(i.xTaskGetSchedulerState) for xTaskGetSchedulerState
    queue.o(i.xQueueGenericSend) refers to port.o(i.vPortEnterCritical) for vPortEnterCritical
    queue.o(i.xQueueGenericSend) refers to queue.o(i.prvCopyDataToQueue) for prvCopyDataToQueue
    queue.o(i.xQueueGenericSend) refers to queue.o(i.prvNotifyQueueSetContainer) for prvNotifyQueueSetContainer
    queue.o(i.xQueueGenericSend) refers to port.o(i.vPortYield) for vPortYield
    queue.o(i.xQueueGenericSend) refers to tasks.o(i.xTaskRemoveFromEventList) for xTaskRemoveFromEventList
    queue.o(i.xQueueGenericSend) refers to port.o(i.vPortExitCritical) for vPortExitCritical
    queue.o(i.xQueueGenericSend) refers to tasks.o(i.vTaskInternalSetTimeOutState) for vTaskInternalSetTimeOutState
    queue.o(i.xQueueGenericSend) refers to tasks.o(i.vTaskSuspendAll) for vTaskSuspendAll
    queue.o(i.xQueueGenericSend) refers to tasks.o(i.xTaskCheckForTimeOut) for xTaskCheckForTimeOut
    queue.o(i.xQueueGenericSend) refers to queue.o(i.prvIsQueueFull) for prvIsQueueFull
    queue.o(i.xQueueGenericSend) refers to tasks.o(i.vTaskPlaceOnEventList) for vTaskPlaceOnEventList
    queue.o(i.xQueueGenericSend) refers to queue.o(i.prvUnlockQueue) for prvUnlockQueue
    queue.o(i.xQueueGenericSend) refers to tasks.o(i.xTaskResumeAll) for xTaskResumeAll
    queue.o(i.xQueueGenericSendFromISR) refers to port.o(.emb_text) for ulSetInterruptMaskFromISR
    queue.o(i.xQueueGenericSendFromISR) refers to queue.o(i.prvCopyDataToQueue) for prvCopyDataToQueue
    queue.o(i.xQueueGenericSendFromISR) refers to queue.o(i.prvNotifyQueueSetContainer) for prvNotifyQueueSetContainer
    queue.o(i.xQueueGenericSendFromISR) refers to tasks.o(i.xTaskRemoveFromEventList) for xTaskRemoveFromEventList
    queue.o(i.xQueueGiveFromISR) refers to port.o(.emb_text) for ulSetInterruptMaskFromISR
    queue.o(i.xQueueGiveFromISR) refers to queue.o(i.prvNotifyQueueSetContainer) for prvNotifyQueueSetContainer
    queue.o(i.xQueueGiveFromISR) refers to tasks.o(i.xTaskRemoveFromEventList) for xTaskRemoveFromEventList
    queue.o(i.xQueueGiveMutexRecursive) refers to tasks.o(i.xTaskGetCurrentTaskHandle) for xTaskGetCurrentTaskHandle
    queue.o(i.xQueueGiveMutexRecursive) refers to queue.o(i.xQueueGenericSend) for xQueueGenericSend
    queue.o(i.xQueuePeek) refers to tasks.o(i.xTaskGetSchedulerState) for xTaskGetSchedulerState
    queue.o(i.xQueuePeek) refers to port.o(i.vPortEnterCritical) for vPortEnterCritical
    queue.o(i.xQueuePeek) refers to queue.o(i.prvCopyDataFromQueue) for prvCopyDataFromQueue
    queue.o(i.xQueuePeek) refers to tasks.o(i.xTaskRemoveFromEventList) for xTaskRemoveFromEventList
    queue.o(i.xQueuePeek) refers to port.o(i.vPortYield) for vPortYield
    queue.o(i.xQueuePeek) refers to port.o(i.vPortExitCritical) for vPortExitCritical
    queue.o(i.xQueuePeek) refers to tasks.o(i.vTaskInternalSetTimeOutState) for vTaskInternalSetTimeOutState
    queue.o(i.xQueuePeek) refers to tasks.o(i.vTaskSuspendAll) for vTaskSuspendAll
    queue.o(i.xQueuePeek) refers to tasks.o(i.xTaskCheckForTimeOut) for xTaskCheckForTimeOut
    queue.o(i.xQueuePeek) refers to queue.o(i.prvIsQueueEmpty) for prvIsQueueEmpty
    queue.o(i.xQueuePeek) refers to tasks.o(i.vTaskPlaceOnEventList) for vTaskPlaceOnEventList
    queue.o(i.xQueuePeek) refers to queue.o(i.prvUnlockQueue) for prvUnlockQueue
    queue.o(i.xQueuePeek) refers to tasks.o(i.xTaskResumeAll) for xTaskResumeAll
    queue.o(i.xQueuePeekFromISR) refers to port.o(.emb_text) for ulSetInterruptMaskFromISR
    queue.o(i.xQueuePeekFromISR) refers to queue.o(i.prvCopyDataFromQueue) for prvCopyDataFromQueue
    queue.o(i.xQueueReceive) refers to tasks.o(i.xTaskGetSchedulerState) for xTaskGetSchedulerState
    queue.o(i.xQueueReceive) refers to port.o(i.vPortEnterCritical) for vPortEnterCritical
    queue.o(i.xQueueReceive) refers to queue.o(i.prvCopyDataFromQueue) for prvCopyDataFromQueue
    queue.o(i.xQueueReceive) refers to tasks.o(i.xTaskRemoveFromEventList) for xTaskRemoveFromEventList
    queue.o(i.xQueueReceive) refers to port.o(i.vPortYield) for vPortYield
    queue.o(i.xQueueReceive) refers to port.o(i.vPortExitCritical) for vPortExitCritical
    queue.o(i.xQueueReceive) refers to tasks.o(i.vTaskInternalSetTimeOutState) for vTaskInternalSetTimeOutState
    queue.o(i.xQueueReceive) refers to tasks.o(i.vTaskSuspendAll) for vTaskSuspendAll
    queue.o(i.xQueueReceive) refers to tasks.o(i.xTaskCheckForTimeOut) for xTaskCheckForTimeOut
    queue.o(i.xQueueReceive) refers to queue.o(i.prvIsQueueEmpty) for prvIsQueueEmpty
    queue.o(i.xQueueReceive) refers to tasks.o(i.vTaskPlaceOnEventList) for vTaskPlaceOnEventList
    queue.o(i.xQueueReceive) refers to queue.o(i.prvUnlockQueue) for prvUnlockQueue
    queue.o(i.xQueueReceive) refers to tasks.o(i.xTaskResumeAll) for xTaskResumeAll
    queue.o(i.xQueueReceiveFromISR) refers to port.o(.emb_text) for ulSetInterruptMaskFromISR
    queue.o(i.xQueueReceiveFromISR) refers to queue.o(i.prvCopyDataFromQueue) for prvCopyDataFromQueue
    queue.o(i.xQueueReceiveFromISR) refers to tasks.o(i.xTaskRemoveFromEventList) for xTaskRemoveFromEventList
    queue.o(i.xQueueRemoveFromSet) refers to port.o(i.vPortEnterCritical) for vPortEnterCritical
    queue.o(i.xQueueRemoveFromSet) refers to port.o(i.vPortExitCritical) for vPortExitCritical
    queue.o(i.xQueueSelectFromSet) refers to queue.o(i.xQueueReceive) for xQueueReceive
    queue.o(i.xQueueSelectFromSetFromISR) refers to queue.o(i.xQueueReceiveFromISR) for xQueueReceiveFromISR
    queue.o(i.xQueueSemaphoreTake) refers to tasks.o(i.xTaskGetSchedulerState) for xTaskGetSchedulerState
    queue.o(i.xQueueSemaphoreTake) refers to port.o(i.vPortEnterCritical) for vPortEnterCritical
    queue.o(i.xQueueSemaphoreTake) refers to tasks.o(i.pvTaskIncrementMutexHeldCount) for pvTaskIncrementMutexHeldCount
    queue.o(i.xQueueSemaphoreTake) refers to tasks.o(i.xTaskRemoveFromEventList) for xTaskRemoveFromEventList
    queue.o(i.xQueueSemaphoreTake) refers to port.o(i.vPortYield) for vPortYield
    queue.o(i.xQueueSemaphoreTake) refers to port.o(i.vPortExitCritical) for vPortExitCritical
    queue.o(i.xQueueSemaphoreTake) refers to tasks.o(i.vTaskInternalSetTimeOutState) for vTaskInternalSetTimeOutState
    queue.o(i.xQueueSemaphoreTake) refers to tasks.o(i.vTaskSuspendAll) for vTaskSuspendAll
    queue.o(i.xQueueSemaphoreTake) refers to tasks.o(i.xTaskCheckForTimeOut) for xTaskCheckForTimeOut
    queue.o(i.xQueueSemaphoreTake) refers to queue.o(i.prvIsQueueEmpty) for prvIsQueueEmpty
    queue.o(i.xQueueSemaphoreTake) refers to tasks.o(i.xTaskPriorityInherit) for xTaskPriorityInherit
    queue.o(i.xQueueSemaphoreTake) refers to tasks.o(i.vTaskPlaceOnEventList) for vTaskPlaceOnEventList
    queue.o(i.xQueueSemaphoreTake) refers to queue.o(i.prvUnlockQueue) for prvUnlockQueue
    queue.o(i.xQueueSemaphoreTake) refers to tasks.o(i.xTaskResumeAll) for xTaskResumeAll
    queue.o(i.xQueueSemaphoreTake) refers to queue.o(i.prvGetDisinheritPriorityAfterTimeout) for prvGetDisinheritPriorityAfterTimeout
    queue.o(i.xQueueSemaphoreTake) refers to tasks.o(i.vTaskPriorityDisinheritAfterTimeout) for vTaskPriorityDisinheritAfterTimeout
    queue.o(i.xQueueTakeMutexRecursive) refers to tasks.o(i.xTaskGetCurrentTaskHandle) for xTaskGetCurrentTaskHandle
    queue.o(i.xQueueTakeMutexRecursive) refers to queue.o(i.xQueueSemaphoreTake) for xQueueSemaphoreTake
    stream_buffer.o(i.prvInitialiseNewStreamBuffer) refers to memset.o(.text) for memset
    stream_buffer.o(i.prvInitialiseNewStreamBuffer) refers to rt_memclr.o(.text) for __aeabi_memclr4
    stream_buffer.o(i.prvReadBytesFromBuffer) refers to rt_memcpy.o(.text) for __aeabi_memcpy
    stream_buffer.o(i.prvReadMessageFromBuffer) refers to stream_buffer.o(i.prvReadBytesFromBuffer) for prvReadBytesFromBuffer
    stream_buffer.o(i.prvWriteBytesToBuffer) refers to rt_memcpy.o(.text) for __aeabi_memcpy
    stream_buffer.o(i.prvWriteMessageToBuffer) refers to stream_buffer.o(i.prvWriteBytesToBuffer) for prvWriteBytesToBuffer
    stream_buffer.o(i.vStreamBufferDelete) refers to heap_4.o(i.vPortFree) for vPortFree
    stream_buffer.o(i.vStreamBufferDelete) refers to rt_memclr.o(.text) for __aeabi_memclr4
    stream_buffer.o(i.xStreamBufferBytesAvailable) refers to stream_buffer.o(i.prvBytesInBuffer) for prvBytesInBuffer
    stream_buffer.o(i.xStreamBufferGenericCreate) refers to heap_4.o(i.pvPortMalloc) for pvPortMalloc
    stream_buffer.o(i.xStreamBufferGenericCreate) refers to stream_buffer.o(i.prvInitialiseNewStreamBuffer) for prvInitialiseNewStreamBuffer
    stream_buffer.o(i.xStreamBufferIsFull) refers to stream_buffer.o(i.xStreamBufferSpacesAvailable) for xStreamBufferSpacesAvailable
    stream_buffer.o(i.xStreamBufferNextMessageLengthBytes) refers to stream_buffer.o(i.prvBytesInBuffer) for prvBytesInBuffer
    stream_buffer.o(i.xStreamBufferNextMessageLengthBytes) refers to stream_buffer.o(i.prvReadBytesFromBuffer) for prvReadBytesFromBuffer
    stream_buffer.o(i.xStreamBufferReceive) refers to port.o(i.vPortEnterCritical) for vPortEnterCritical
    stream_buffer.o(i.xStreamBufferReceive) refers to stream_buffer.o(i.prvBytesInBuffer) for prvBytesInBuffer
    stream_buffer.o(i.xStreamBufferReceive) refers to tasks.o(i.xTaskGenericNotifyStateClear) for xTaskGenericNotifyStateClear
    stream_buffer.o(i.xStreamBufferReceive) refers to tasks.o(i.xTaskGetCurrentTaskHandle) for xTaskGetCurrentTaskHandle
    stream_buffer.o(i.xStreamBufferReceive) refers to port.o(i.vPortExitCritical) for vPortExitCritical
    stream_buffer.o(i.xStreamBufferReceive) refers to tasks.o(i.xTaskGenericNotifyWait) for xTaskGenericNotifyWait
    stream_buffer.o(i.xStreamBufferReceive) refers to stream_buffer.o(i.prvReadMessageFromBuffer) for prvReadMessageFromBuffer
    stream_buffer.o(i.xStreamBufferReceive) refers to tasks.o(i.vTaskSuspendAll) for vTaskSuspendAll
    stream_buffer.o(i.xStreamBufferReceive) refers to tasks.o(i.xTaskGenericNotify) for xTaskGenericNotify
    stream_buffer.o(i.xStreamBufferReceive) refers to tasks.o(i.xTaskResumeAll) for xTaskResumeAll
    stream_buffer.o(i.xStreamBufferReceiveCompletedFromISR) refers to port.o(.emb_text) for ulSetInterruptMaskFromISR
    stream_buffer.o(i.xStreamBufferReceiveCompletedFromISR) refers to tasks.o(i.xTaskGenericNotifyFromISR) for xTaskGenericNotifyFromISR
    stream_buffer.o(i.xStreamBufferReceiveFromISR) refers to stream_buffer.o(i.prvBytesInBuffer) for prvBytesInBuffer
    stream_buffer.o(i.xStreamBufferReceiveFromISR) refers to stream_buffer.o(i.prvReadMessageFromBuffer) for prvReadMessageFromBuffer
    stream_buffer.o(i.xStreamBufferReceiveFromISR) refers to port.o(.emb_text) for ulSetInterruptMaskFromISR
    stream_buffer.o(i.xStreamBufferReceiveFromISR) refers to tasks.o(i.xTaskGenericNotifyFromISR) for xTaskGenericNotifyFromISR
    stream_buffer.o(i.xStreamBufferReset) refers to port.o(i.vPortEnterCritical) for vPortEnterCritical
    stream_buffer.o(i.xStreamBufferReset) refers to stream_buffer.o(i.prvInitialiseNewStreamBuffer) for prvInitialiseNewStreamBuffer
    stream_buffer.o(i.xStreamBufferReset) refers to port.o(i.vPortExitCritical) for vPortExitCritical
    stream_buffer.o(i.xStreamBufferSend) refers to tasks.o(i.vTaskSetTimeOutState) for vTaskSetTimeOutState
    stream_buffer.o(i.xStreamBufferSend) refers to port.o(i.vPortEnterCritical) for vPortEnterCritical
    stream_buffer.o(i.xStreamBufferSend) refers to stream_buffer.o(i.xStreamBufferSpacesAvailable) for xStreamBufferSpacesAvailable
    stream_buffer.o(i.xStreamBufferSend) refers to tasks.o(i.xTaskGenericNotifyStateClear) for xTaskGenericNotifyStateClear
    stream_buffer.o(i.xStreamBufferSend) refers to tasks.o(i.xTaskGetCurrentTaskHandle) for xTaskGetCurrentTaskHandle
    stream_buffer.o(i.xStreamBufferSend) refers to port.o(i.vPortExitCritical) for vPortExitCritical
    stream_buffer.o(i.xStreamBufferSend) refers to tasks.o(i.xTaskGenericNotifyWait) for xTaskGenericNotifyWait
    stream_buffer.o(i.xStreamBufferSend) refers to tasks.o(i.xTaskCheckForTimeOut) for xTaskCheckForTimeOut
    stream_buffer.o(i.xStreamBufferSend) refers to stream_buffer.o(i.prvWriteMessageToBuffer) for prvWriteMessageToBuffer
    stream_buffer.o(i.xStreamBufferSend) refers to stream_buffer.o(i.prvBytesInBuffer) for prvBytesInBuffer
    stream_buffer.o(i.xStreamBufferSend) refers to tasks.o(i.vTaskSuspendAll) for vTaskSuspendAll
    stream_buffer.o(i.xStreamBufferSend) refers to tasks.o(i.xTaskGenericNotify) for xTaskGenericNotify
    stream_buffer.o(i.xStreamBufferSend) refers to tasks.o(i.xTaskResumeAll) for xTaskResumeAll
    stream_buffer.o(i.xStreamBufferSendCompletedFromISR) refers to port.o(.emb_text) for ulSetInterruptMaskFromISR
    stream_buffer.o(i.xStreamBufferSendCompletedFromISR) refers to tasks.o(i.xTaskGenericNotifyFromISR) for xTaskGenericNotifyFromISR
    stream_buffer.o(i.xStreamBufferSendFromISR) refers to stream_buffer.o(i.xStreamBufferSpacesAvailable) for xStreamBufferSpacesAvailable
    stream_buffer.o(i.xStreamBufferSendFromISR) refers to stream_buffer.o(i.prvWriteMessageToBuffer) for prvWriteMessageToBuffer
    stream_buffer.o(i.xStreamBufferSendFromISR) refers to stream_buffer.o(i.prvBytesInBuffer) for prvBytesInBuffer
    stream_buffer.o(i.xStreamBufferSendFromISR) refers to port.o(.emb_text) for ulSetInterruptMaskFromISR
    stream_buffer.o(i.xStreamBufferSendFromISR) refers to tasks.o(i.xTaskGenericNotifyFromISR) for xTaskGenericNotifyFromISR
    tasks.o(i.eTaskGetState) refers to port.o(i.vPortEnterCritical) for vPortEnterCritical
    tasks.o(i.eTaskGetState) refers to port.o(i.vPortExitCritical) for vPortExitCritical
    tasks.o(i.eTaskGetState) refers to tasks.o(.data) for pxCurrentTCB
    tasks.o(i.eTaskGetState) refers to tasks.o(.bss) for xSuspendedTaskList
    tasks.o(i.pcTaskGetName) refers to tasks.o(.data) for pxCurrentTCB
    tasks.o(i.prvAddCurrentTaskToDelayedList) refers to list.o(i.uxListRemove) for uxListRemove
    tasks.o(i.prvAddCurrentTaskToDelayedList) refers to list.o(i.vListInsertEnd) for vListInsertEnd
    tasks.o(i.prvAddCurrentTaskToDelayedList) refers to list.o(i.vListInsert) for vListInsert
    tasks.o(i.prvAddCurrentTaskToDelayedList) refers to tasks.o(.data) for xTickCount
    tasks.o(i.prvAddCurrentTaskToDelayedList) refers to tasks.o(.bss) for xSuspendedTaskList
    tasks.o(i.prvAddNewTaskToReadyList) refers to port.o(i.vPortEnterCritical) for vPortEnterCritical
    tasks.o(i.prvAddNewTaskToReadyList) refers to tasks.o(i.prvInitialiseTaskLists) for prvInitialiseTaskLists
    tasks.o(i.prvAddNewTaskToReadyList) refers to list.o(i.vListInsertEnd) for vListInsertEnd
    tasks.o(i.prvAddNewTaskToReadyList) refers to port.o(i.vPortExitCritical) for vPortExitCritical
    tasks.o(i.prvAddNewTaskToReadyList) refers to port.o(i.vPortYield) for vPortYield
    tasks.o(i.prvAddNewTaskToReadyList) refers to tasks.o(.data) for uxCurrentNumberOfTasks
    tasks.o(i.prvAddNewTaskToReadyList) refers to tasks.o(.bss) for pxReadyTasksLists
    tasks.o(i.prvCheckTasksWaitingTermination) refers to port.o(i.vPortEnterCritical) for vPortEnterCritical
    tasks.o(i.prvCheckTasksWaitingTermination) refers to list.o(i.uxListRemove) for uxListRemove
    tasks.o(i.prvCheckTasksWaitingTermination) refers to port.o(i.vPortExitCritical) for vPortExitCritical
    tasks.o(i.prvCheckTasksWaitingTermination) refers to tasks.o(i.prvDeleteTCB) for prvDeleteTCB
    tasks.o(i.prvCheckTasksWaitingTermination) refers to tasks.o(.bss) for xTasksWaitingTermination
    tasks.o(i.prvCheckTasksWaitingTermination) refers to tasks.o(.data) for uxCurrentNumberOfTasks
    tasks.o(i.prvDeleteTCB) refers to heap_4.o(i.vPortFree) for vPortFree
    tasks.o(i.prvIdleTask) refers to tasks.o(i.prvCheckTasksWaitingTermination) for prvCheckTasksWaitingTermination
    tasks.o(i.prvIdleTask) refers to port.o(i.vPortYield) for vPortYield
    tasks.o(i.prvIdleTask) refers to tasks.o(.bss) for pxReadyTasksLists
    tasks.o(i.prvInitialiseNewTask) refers to aeabi_memset.o(.text) for __aeabi_memset
    tasks.o(i.prvInitialiseNewTask) refers to list.o(i.vListInitialiseItem) for vListInitialiseItem
    tasks.o(i.prvInitialiseNewTask) refers to port.o(i.pxPortInitialiseStack) for pxPortInitialiseStack
    tasks.o(i.prvInitialiseTaskLists) refers to list.o(i.vListInitialise) for vListInitialise
    tasks.o(i.prvInitialiseTaskLists) refers to tasks.o(.bss) for pxReadyTasksLists
    tasks.o(i.prvInitialiseTaskLists) refers to tasks.o(.data) for pxDelayedTaskList
    tasks.o(i.prvListTasksWithinSingleList) refers to tasks.o(i.vTaskGetInfo) for vTaskGetInfo
    tasks.o(i.prvResetNextTaskUnblockTime) refers to tasks.o(.data) for pxDelayedTaskList
    tasks.o(i.prvTaskIsTaskSuspended) refers to tasks.o(.bss) for xSuspendedTaskList
    tasks.o(i.prvWriteNameToBuffer) refers to strcpy.o(.text) for strcpy
    tasks.o(i.prvWriteNameToBuffer) refers to strlen.o(.text) for strlen
    tasks.o(i.pvTaskIncrementMutexHeldCount) refers to tasks.o(.data) for pxCurrentTCB
    tasks.o(i.ulTaskGenericNotifyTake) refers to port.o(i.vPortEnterCritical) for vPortEnterCritical
    tasks.o(i.ulTaskGenericNotifyTake) refers to tasks.o(i.prvAddCurrentTaskToDelayedList) for prvAddCurrentTaskToDelayedList
    tasks.o(i.ulTaskGenericNotifyTake) refers to port.o(i.vPortYield) for vPortYield
    tasks.o(i.ulTaskGenericNotifyTake) refers to port.o(i.vPortExitCritical) for vPortExitCritical
    tasks.o(i.ulTaskGenericNotifyTake) refers to tasks.o(.data) for pxCurrentTCB
    tasks.o(i.ulTaskGenericNotifyValueClear) refers to port.o(i.vPortEnterCritical) for vPortEnterCritical
    tasks.o(i.ulTaskGenericNotifyValueClear) refers to port.o(i.vPortExitCritical) for vPortExitCritical
    tasks.o(i.ulTaskGenericNotifyValueClear) refers to tasks.o(.data) for pxCurrentTCB
    tasks.o(i.uxTaskGetNumberOfTasks) refers to tasks.o(.data) for uxCurrentNumberOfTasks
    tasks.o(i.uxTaskGetSystemState) refers to tasks.o(i.vTaskSuspendAll) for vTaskSuspendAll
    tasks.o(i.uxTaskGetSystemState) refers to tasks.o(i.prvListTasksWithinSingleList) for prvListTasksWithinSingleList
    tasks.o(i.uxTaskGetSystemState) refers to tasks.o(i.xTaskResumeAll) for xTaskResumeAll
    tasks.o(i.uxTaskGetSystemState) refers to tasks.o(.data) for uxCurrentNumberOfTasks
    tasks.o(i.uxTaskGetSystemState) refers to tasks.o(.bss) for pxReadyTasksLists
    tasks.o(i.uxTaskGetSystemState) refers to sl_niv.o(.data) for ulHighFrequencyTimerTicks
    tasks.o(i.uxTaskPriorityGet) refers to port.o(i.vPortEnterCritical) for vPortEnterCritical
    tasks.o(i.uxTaskPriorityGet) refers to port.o(i.vPortExitCritical) for vPortExitCritical
    tasks.o(i.uxTaskPriorityGet) refers to tasks.o(.data) for pxCurrentTCB
    tasks.o(i.uxTaskPriorityGetFromISR) refers to port.o(.emb_text) for ulSetInterruptMaskFromISR
    tasks.o(i.uxTaskPriorityGetFromISR) refers to tasks.o(.data) for pxCurrentTCB
    tasks.o(i.uxTaskResetEventItemValue) refers to tasks.o(.data) for pxCurrentTCB
    tasks.o(i.vTaskDelay) refers to tasks.o(i.vTaskSuspendAll) for vTaskSuspendAll
    tasks.o(i.vTaskDelay) refers to tasks.o(i.prvAddCurrentTaskToDelayedList) for prvAddCurrentTaskToDelayedList
    tasks.o(i.vTaskDelay) refers to tasks.o(i.xTaskResumeAll) for xTaskResumeAll
    tasks.o(i.vTaskDelay) refers to port.o(i.vPortYield) for vPortYield
    tasks.o(i.vTaskDelay) refers to tasks.o(.data) for uxSchedulerSuspended
    tasks.o(i.vTaskDelete) refers to port.o(i.vPortEnterCritical) for vPortEnterCritical
    tasks.o(i.vTaskDelete) refers to list.o(i.uxListRemove) for uxListRemove
    tasks.o(i.vTaskDelete) refers to list.o(i.vListInsertEnd) for vListInsertEnd
    tasks.o(i.vTaskDelete) refers to tasks.o(i.prvResetNextTaskUnblockTime) for prvResetNextTaskUnblockTime
    tasks.o(i.vTaskDelete) refers to port.o(i.vPortExitCritical) for vPortExitCritical
    tasks.o(i.vTaskDelete) refers to tasks.o(i.prvDeleteTCB) for prvDeleteTCB
    tasks.o(i.vTaskDelete) refers to port.o(i.vPortYield) for vPortYield
    tasks.o(i.vTaskDelete) refers to tasks.o(.data) for pxCurrentTCB
    tasks.o(i.vTaskDelete) refers to tasks.o(.bss) for xTasksWaitingTermination
    tasks.o(i.vTaskEndScheduler) refers to port.o(i.vPortEndScheduler) for vPortEndScheduler
    tasks.o(i.vTaskEndScheduler) refers to tasks.o(.data) for xSchedulerRunning
    tasks.o(i.vTaskGenericNotifyGiveFromISR) refers to port.o(.emb_text) for ulSetInterruptMaskFromISR
    tasks.o(i.vTaskGenericNotifyGiveFromISR) refers to list.o(i.uxListRemove) for uxListRemove
    tasks.o(i.vTaskGenericNotifyGiveFromISR) refers to list.o(i.vListInsertEnd) for vListInsertEnd
    tasks.o(i.vTaskGenericNotifyGiveFromISR) refers to tasks.o(.data) for uxSchedulerSuspended
    tasks.o(i.vTaskGenericNotifyGiveFromISR) refers to tasks.o(.bss) for pxReadyTasksLists
    tasks.o(i.vTaskGetInfo) refers to tasks.o(i.vTaskSuspendAll) for vTaskSuspendAll
    tasks.o(i.vTaskGetInfo) refers to tasks.o(i.xTaskResumeAll) for xTaskResumeAll
    tasks.o(i.vTaskGetInfo) refers to tasks.o(i.eTaskGetState) for eTaskGetState
    tasks.o(i.vTaskGetInfo) refers to tasks.o(i.prvTaskCheckFreeStackSpace) for prvTaskCheckFreeStackSpace
    tasks.o(i.vTaskGetInfo) refers to tasks.o(.data) for pxCurrentTCB
    tasks.o(i.vTaskGetRunTimeStats) refers to _printf_percent.o(.ARM.Collect$$_printf_percent$$00000000) for _printf_percent
    tasks.o(i.vTaskGetRunTimeStats) refers to _printf_u.o(.ARM.Collect$$_printf_percent$$0000000A) for _printf_u
    tasks.o(i.vTaskGetRunTimeStats) refers to _printf_dec.o(.text) for _printf_int_dec
    tasks.o(i.vTaskGetRunTimeStats) refers to heap_4.o(i.pvPortMalloc) for pvPortMalloc
    tasks.o(i.vTaskGetRunTimeStats) refers to tasks.o(i.uxTaskGetSystemState) for uxTaskGetSystemState
    tasks.o(i.vTaskGetRunTimeStats) refers to aeabi_sdiv.o(.text) for __aeabi_uidivmod
    tasks.o(i.vTaskGetRunTimeStats) refers to tasks.o(i.prvWriteNameToBuffer) for prvWriteNameToBuffer
    tasks.o(i.vTaskGetRunTimeStats) refers to noretval__2sprintf.o(.text) for __2sprintf
    tasks.o(i.vTaskGetRunTimeStats) refers to strlen.o(.text) for strlen
    tasks.o(i.vTaskGetRunTimeStats) refers to heap_4.o(i.vPortFree) for vPortFree
    tasks.o(i.vTaskGetRunTimeStats) refers to tasks.o(.data) for uxCurrentNumberOfTasks
    tasks.o(i.vTaskInternalSetTimeOutState) refers to tasks.o(.data) for xNumOfOverflows
    tasks.o(i.vTaskList) refers to _printf_percent.o(.ARM.Collect$$_printf_percent$$00000000) for _printf_percent
    tasks.o(i.vTaskList) refers to _printf_u.o(.ARM.Collect$$_printf_percent$$0000000A) for _printf_u
    tasks.o(i.vTaskList) refers to _printf_c.o(.ARM.Collect$$_printf_percent$$00000013) for _printf_c
    tasks.o(i.vTaskList) refers to _printf_dec.o(.text) for _printf_int_dec
    tasks.o(i.vTaskList) refers to _printf_str.o(.text) for _printf_str
    tasks.o(i.vTaskList) refers to heap_4.o(i.pvPortMalloc) for pvPortMalloc
    tasks.o(i.vTaskList) refers to tasks.o(i.uxTaskGetSystemState) for uxTaskGetSystemState
    tasks.o(i.vTaskList) refers to dbgtool.o(i.__ARM_common_switch8) for __ARM_common_switch8
    tasks.o(i.vTaskList) refers to tasks.o(i.prvWriteNameToBuffer) for prvWriteNameToBuffer
    tasks.o(i.vTaskList) refers to noretval__2sprintf.o(.text) for __2sprintf
    tasks.o(i.vTaskList) refers to strlen.o(.text) for strlen
    tasks.o(i.vTaskList) refers to heap_4.o(i.vPortFree) for vPortFree
    tasks.o(i.vTaskList) refers to tasks.o(.data) for uxCurrentNumberOfTasks
    tasks.o(i.vTaskMissedYield) refers to tasks.o(.data) for xYieldPending
    tasks.o(i.vTaskPlaceOnEventList) refers to list.o(i.vListInsert) for vListInsert
    tasks.o(i.vTaskPlaceOnEventList) refers to tasks.o(i.prvAddCurrentTaskToDelayedList) for prvAddCurrentTaskToDelayedList
    tasks.o(i.vTaskPlaceOnEventList) refers to tasks.o(.data) for pxCurrentTCB
    tasks.o(i.vTaskPlaceOnEventListRestricted) refers to list.o(i.vListInsertEnd) for vListInsertEnd
    tasks.o(i.vTaskPlaceOnEventListRestricted) refers to tasks.o(i.prvAddCurrentTaskToDelayedList) for prvAddCurrentTaskToDelayedList
    tasks.o(i.vTaskPlaceOnEventListRestricted) refers to tasks.o(.data) for pxCurrentTCB
    tasks.o(i.vTaskPlaceOnUnorderedEventList) refers to list.o(i.vListInsertEnd) for vListInsertEnd
    tasks.o(i.vTaskPlaceOnUnorderedEventList) refers to tasks.o(i.prvAddCurrentTaskToDelayedList) for prvAddCurrentTaskToDelayedList
    tasks.o(i.vTaskPlaceOnUnorderedEventList) refers to tasks.o(.data) for uxSchedulerSuspended
    tasks.o(i.vTaskPriorityDisinheritAfterTimeout) refers to list.o(i.uxListRemove) for uxListRemove
    tasks.o(i.vTaskPriorityDisinheritAfterTimeout) refers to list.o(i.vListInsertEnd) for vListInsertEnd
    tasks.o(i.vTaskPriorityDisinheritAfterTimeout) refers to tasks.o(.data) for pxCurrentTCB
    tasks.o(i.vTaskPriorityDisinheritAfterTimeout) refers to tasks.o(.bss) for pxReadyTasksLists
    tasks.o(i.vTaskPrioritySet) refers to port.o(i.vPortEnterCritical) for vPortEnterCritical
    tasks.o(i.vTaskPrioritySet) refers to list.o(i.uxListRemove) for uxListRemove
    tasks.o(i.vTaskPrioritySet) refers to list.o(i.vListInsertEnd) for vListInsertEnd
    tasks.o(i.vTaskPrioritySet) refers to port.o(i.vPortYield) for vPortYield
    tasks.o(i.vTaskPrioritySet) refers to port.o(i.vPortExitCritical) for vPortExitCritical
    tasks.o(i.vTaskPrioritySet) refers to tasks.o(.data) for pxCurrentTCB
    tasks.o(i.vTaskPrioritySet) refers to tasks.o(.bss) for pxReadyTasksLists
    tasks.o(i.vTaskRemoveFromUnorderedEventList) refers to list.o(i.uxListRemove) for uxListRemove
    tasks.o(i.vTaskRemoveFromUnorderedEventList) refers to list.o(i.vListInsertEnd) for vListInsertEnd
    tasks.o(i.vTaskRemoveFromUnorderedEventList) refers to tasks.o(.data) for uxSchedulerSuspended
    tasks.o(i.vTaskRemoveFromUnorderedEventList) refers to tasks.o(.bss) for pxReadyTasksLists
    tasks.o(i.vTaskResume) refers to port.o(i.vPortEnterCritical) for vPortEnterCritical
    tasks.o(i.vTaskResume) refers to tasks.o(i.prvTaskIsTaskSuspended) for prvTaskIsTaskSuspended
    tasks.o(i.vTaskResume) refers to list.o(i.uxListRemove) for uxListRemove
    tasks.o(i.vTaskResume) refers to list.o(i.vListInsertEnd) for vListInsertEnd
    tasks.o(i.vTaskResume) refers to port.o(i.vPortYield) for vPortYield
    tasks.o(i.vTaskResume) refers to port.o(i.vPortExitCritical) for vPortExitCritical
    tasks.o(i.vTaskResume) refers to tasks.o(.data) for pxCurrentTCB
    tasks.o(i.vTaskResume) refers to tasks.o(.bss) for pxReadyTasksLists
    tasks.o(i.vTaskSetTimeOutState) refers to port.o(i.vPortEnterCritical) for vPortEnterCritical
    tasks.o(i.vTaskSetTimeOutState) refers to port.o(i.vPortExitCritical) for vPortExitCritical
    tasks.o(i.vTaskSetTimeOutState) refers to tasks.o(.data) for xNumOfOverflows
    tasks.o(i.vTaskStartScheduler) refers to tasks.o(i.xTaskCreate) for xTaskCreate
    tasks.o(i.vTaskStartScheduler) refers to timers.o(i.xTimerCreateTimerTask) for xTimerCreateTimerTask
    tasks.o(i.vTaskStartScheduler) refers to port.o(i.xPortStartScheduler) for xPortStartScheduler
    tasks.o(i.vTaskStartScheduler) refers to tasks.o(.data) for xIdleTaskHandle
    tasks.o(i.vTaskStartScheduler) refers to tasks.o(i.prvIdleTask) for prvIdleTask
    tasks.o(i.vTaskStartScheduler) refers to sl_niv.o(.data) for ulHighFrequencyTimerTicks
    tasks.o(i.vTaskSuspend) refers to port.o(i.vPortEnterCritical) for vPortEnterCritical
    tasks.o(i.vTaskSuspend) refers to list.o(i.uxListRemove) for uxListRemove
    tasks.o(i.vTaskSuspend) refers to list.o(i.vListInsertEnd) for vListInsertEnd
    tasks.o(i.vTaskSuspend) refers to port.o(i.vPortExitCritical) for vPortExitCritical
    tasks.o(i.vTaskSuspend) refers to tasks.o(i.prvResetNextTaskUnblockTime) for prvResetNextTaskUnblockTime
    tasks.o(i.vTaskSuspend) refers to port.o(i.vPortYield) for vPortYield
    tasks.o(i.vTaskSuspend) refers to tasks.o(i.vTaskSwitchContext) for vTaskSwitchContext
    tasks.o(i.vTaskSuspend) refers to tasks.o(.data) for pxCurrentTCB
    tasks.o(i.vTaskSuspend) refers to tasks.o(.bss) for xSuspendedTaskList
    tasks.o(i.vTaskSuspendAll) refers to tasks.o(.data) for uxSchedulerSuspended
    tasks.o(i.vTaskSwitchContext) refers to tasks.o(.data) for uxSchedulerSuspended
    tasks.o(i.vTaskSwitchContext) refers to sl_niv.o(.data) for ulHighFrequencyTimerTicks
    tasks.o(i.vTaskSwitchContext) refers to tasks.o(.bss) for pxReadyTasksLists
    tasks.o(i.xTaskCatchUpTicks) refers to tasks.o(i.vTaskSuspendAll) for vTaskSuspendAll
    tasks.o(i.xTaskCatchUpTicks) refers to tasks.o(i.xTaskResumeAll) for xTaskResumeAll
    tasks.o(i.xTaskCatchUpTicks) refers to tasks.o(.data) for uxSchedulerSuspended
    tasks.o(i.xTaskCheckForTimeOut) refers to port.o(i.vPortEnterCritical) for vPortEnterCritical
    tasks.o(i.xTaskCheckForTimeOut) refers to tasks.o(i.vTaskInternalSetTimeOutState) for vTaskInternalSetTimeOutState
    tasks.o(i.xTaskCheckForTimeOut) refers to port.o(i.vPortExitCritical) for vPortExitCritical
    tasks.o(i.xTaskCheckForTimeOut) refers to tasks.o(.data) for xTickCount
    tasks.o(i.xTaskCreate) refers to heap_4.o(i.pvPortMalloc) for pvPortMalloc
    tasks.o(i.xTaskCreate) refers to heap_4.o(i.vPortFree) for vPortFree
    tasks.o(i.xTaskCreate) refers to tasks.o(i.prvInitialiseNewTask) for prvInitialiseNewTask
    tasks.o(i.xTaskCreate) refers to tasks.o(i.prvAddNewTaskToReadyList) for prvAddNewTaskToReadyList
    tasks.o(i.xTaskDelayUntil) refers to tasks.o(i.vTaskSuspendAll) for vTaskSuspendAll
    tasks.o(i.xTaskDelayUntil) refers to tasks.o(i.prvAddCurrentTaskToDelayedList) for prvAddCurrentTaskToDelayedList
    tasks.o(i.xTaskDelayUntil) refers to tasks.o(i.xTaskResumeAll) for xTaskResumeAll
    tasks.o(i.xTaskDelayUntil) refers to port.o(i.vPortYield) for vPortYield
    tasks.o(i.xTaskDelayUntil) refers to tasks.o(.data) for uxSchedulerSuspended
    tasks.o(i.xTaskGenericNotify) refers to port.o(i.vPortEnterCritical) for vPortEnterCritical
    tasks.o(i.xTaskGenericNotify) refers to dbgtool.o(i.__ARM_common_switch8) for __ARM_common_switch8
    tasks.o(i.xTaskGenericNotify) refers to list.o(i.uxListRemove) for uxListRemove
    tasks.o(i.xTaskGenericNotify) refers to list.o(i.vListInsertEnd) for vListInsertEnd
    tasks.o(i.xTaskGenericNotify) refers to port.o(i.vPortYield) for vPortYield
    tasks.o(i.xTaskGenericNotify) refers to port.o(i.vPortExitCritical) for vPortExitCritical
    tasks.o(i.xTaskGenericNotify) refers to tasks.o(.data) for xTickCount
    tasks.o(i.xTaskGenericNotify) refers to tasks.o(.bss) for pxReadyTasksLists
    tasks.o(i.xTaskGenericNotifyFromISR) refers to port.o(.emb_text) for ulSetInterruptMaskFromISR
    tasks.o(i.xTaskGenericNotifyFromISR) refers to dbgtool.o(i.__ARM_common_switch8) for __ARM_common_switch8
    tasks.o(i.xTaskGenericNotifyFromISR) refers to list.o(i.uxListRemove) for uxListRemove
    tasks.o(i.xTaskGenericNotifyFromISR) refers to list.o(i.vListInsertEnd) for vListInsertEnd
    tasks.o(i.xTaskGenericNotifyFromISR) refers to tasks.o(.data) for xTickCount
    tasks.o(i.xTaskGenericNotifyFromISR) refers to tasks.o(.bss) for pxReadyTasksLists
    tasks.o(i.xTaskGenericNotifyStateClear) refers to port.o(i.vPortEnterCritical) for vPortEnterCritical
    tasks.o(i.xTaskGenericNotifyStateClear) refers to port.o(i.vPortExitCritical) for vPortExitCritical
    tasks.o(i.xTaskGenericNotifyStateClear) refers to tasks.o(.data) for pxCurrentTCB
    tasks.o(i.xTaskGenericNotifyWait) refers to port.o(i.vPortEnterCritical) for vPortEnterCritical
    tasks.o(i.xTaskGenericNotifyWait) refers to tasks.o(i.prvAddCurrentTaskToDelayedList) for prvAddCurrentTaskToDelayedList
    tasks.o(i.xTaskGenericNotifyWait) refers to port.o(i.vPortYield) for vPortYield
    tasks.o(i.xTaskGenericNotifyWait) refers to port.o(i.vPortExitCritical) for vPortExitCritical
    tasks.o(i.xTaskGenericNotifyWait) refers to tasks.o(.data) for pxCurrentTCB
    tasks.o(i.xTaskGetCurrentTaskHandle) refers to tasks.o(.data) for pxCurrentTCB
    tasks.o(i.xTaskGetSchedulerState) refers to tasks.o(.data) for xSchedulerRunning
    tasks.o(i.xTaskGetTickCount) refers to tasks.o(.data) for xTickCount
    tasks.o(i.xTaskGetTickCountFromISR) refers to tasks.o(.data) for xTickCount
    tasks.o(i.xTaskIncrementTick) refers to tasks.o(i.prvResetNextTaskUnblockTime) for prvResetNextTaskUnblockTime
    tasks.o(i.xTaskIncrementTick) refers to list.o(i.uxListRemove) for uxListRemove
    tasks.o(i.xTaskIncrementTick) refers to list.o(i.vListInsertEnd) for vListInsertEnd
    tasks.o(i.xTaskIncrementTick) refers to tasks.o(.data) for uxSchedulerSuspended
    tasks.o(i.xTaskIncrementTick) refers to tasks.o(.bss) for pxReadyTasksLists
    tasks.o(i.xTaskPriorityDisinherit) refers to list.o(i.uxListRemove) for uxListRemove
    tasks.o(i.xTaskPriorityDisinherit) refers to list.o(i.vListInsertEnd) for vListInsertEnd
    tasks.o(i.xTaskPriorityDisinherit) refers to tasks.o(.data) for pxCurrentTCB
    tasks.o(i.xTaskPriorityDisinherit) refers to tasks.o(.bss) for pxReadyTasksLists
    tasks.o(i.xTaskPriorityInherit) refers to list.o(i.uxListRemove) for uxListRemove
    tasks.o(i.xTaskPriorityInherit) refers to list.o(i.vListInsertEnd) for vListInsertEnd
    tasks.o(i.xTaskPriorityInherit) refers to tasks.o(.data) for pxCurrentTCB
    tasks.o(i.xTaskPriorityInherit) refers to tasks.o(.bss) for pxReadyTasksLists
    tasks.o(i.xTaskRemoveFromEventList) refers to list.o(i.uxListRemove) for uxListRemove
    tasks.o(i.xTaskRemoveFromEventList) refers to list.o(i.vListInsertEnd) for vListInsertEnd
    tasks.o(i.xTaskRemoveFromEventList) refers to tasks.o(.data) for uxSchedulerSuspended
    tasks.o(i.xTaskRemoveFromEventList) refers to tasks.o(.bss) for pxReadyTasksLists
    tasks.o(i.xTaskResumeAll) refers to port.o(i.vPortEnterCritical) for vPortEnterCritical
    tasks.o(i.xTaskResumeAll) refers to list.o(i.uxListRemove) for uxListRemove
    tasks.o(i.xTaskResumeAll) refers to list.o(i.vListInsertEnd) for vListInsertEnd
    tasks.o(i.xTaskResumeAll) refers to tasks.o(i.prvResetNextTaskUnblockTime) for prvResetNextTaskUnblockTime
    tasks.o(i.xTaskResumeAll) refers to tasks.o(i.xTaskIncrementTick) for xTaskIncrementTick
    tasks.o(i.xTaskResumeAll) refers to port.o(i.vPortYield) for vPortYield
    tasks.o(i.xTaskResumeAll) refers to port.o(i.vPortExitCritical) for vPortExitCritical
    tasks.o(i.xTaskResumeAll) refers to tasks.o(.data) for uxSchedulerSuspended
    tasks.o(i.xTaskResumeAll) refers to tasks.o(.bss) for xPendingReadyList
    tasks.o(i.xTaskResumeFromISR) refers to port.o(.emb_text) for ulSetInterruptMaskFromISR
    tasks.o(i.xTaskResumeFromISR) refers to tasks.o(i.prvTaskIsTaskSuspended) for prvTaskIsTaskSuspended
    tasks.o(i.xTaskResumeFromISR) refers to list.o(i.uxListRemove) for uxListRemove
    tasks.o(i.xTaskResumeFromISR) refers to list.o(i.vListInsertEnd) for vListInsertEnd
    tasks.o(i.xTaskResumeFromISR) refers to tasks.o(.data) for uxSchedulerSuspended
    tasks.o(i.xTaskResumeFromISR) refers to tasks.o(.bss) for pxReadyTasksLists
    timers.o(i.prvCheckForValidListAndQueue) refers to port.o(i.vPortEnterCritical) for vPortEnterCritical
    timers.o(i.prvCheckForValidListAndQueue) refers to list.o(i.vListInitialise) for vListInitialise
    timers.o(i.prvCheckForValidListAndQueue) refers to queue.o(i.xQueueGenericCreate) for xQueueGenericCreate
    timers.o(i.prvCheckForValidListAndQueue) refers to queue.o(i.vQueueAddToRegistry) for vQueueAddToRegistry
    timers.o(i.prvCheckForValidListAndQueue) refers to port.o(i.vPortExitCritical) for vPortExitCritical
    timers.o(i.prvCheckForValidListAndQueue) refers to timers.o(.data) for xTimerQueue
    timers.o(i.prvCheckForValidListAndQueue) refers to timers.o(.bss) for xActiveTimerList1
    timers.o(i.prvGetNextExpireTime) refers to timers.o(.data) for pxCurrentTimerList
    timers.o(i.prvInitialiseNewTimer) refers to timers.o(i.prvCheckForValidListAndQueue) for prvCheckForValidListAndQueue
    timers.o(i.prvInitialiseNewTimer) refers to list.o(i.vListInitialiseItem) for vListInitialiseItem
    timers.o(i.prvInsertTimerInActiveList) refers to list.o(i.vListInsert) for vListInsert
    timers.o(i.prvInsertTimerInActiveList) refers to timers.o(.data) for pxOverflowTimerList
    timers.o(i.prvProcessExpiredTimer) refers to list.o(i.uxListRemove) for uxListRemove
    timers.o(i.prvProcessExpiredTimer) refers to timers.o(i.prvInsertTimerInActiveList) for prvInsertTimerInActiveList
    timers.o(i.prvProcessExpiredTimer) refers to timers.o(i.xTimerGenericCommand) for xTimerGenericCommand
    timers.o(i.prvProcessExpiredTimer) refers to timers.o(.data) for pxCurrentTimerList
    timers.o(i.prvProcessReceivedCommands) refers to list.o(i.uxListRemove) for uxListRemove
    timers.o(i.prvProcessReceivedCommands) refers to timers.o(i.prvSampleTimeNow) for prvSampleTimeNow
    timers.o(i.prvProcessReceivedCommands) refers to dbgtool.o(i.__ARM_common_switch8) for __ARM_common_switch8
    timers.o(i.prvProcessReceivedCommands) refers to timers.o(i.prvInsertTimerInActiveList) for prvInsertTimerInActiveList
    timers.o(i.prvProcessReceivedCommands) refers to timers.o(i.xTimerGenericCommand) for xTimerGenericCommand
    timers.o(i.prvProcessReceivedCommands) refers to heap_4.o(i.vPortFree) for vPortFree
    timers.o(i.prvProcessReceivedCommands) refers to queue.o(i.xQueueReceive) for xQueueReceive
    timers.o(i.prvProcessReceivedCommands) refers to timers.o(.data) for xTimerQueue
    timers.o(i.prvProcessTimerOrBlockTask) refers to tasks.o(i.vTaskSuspendAll) for vTaskSuspendAll
    timers.o(i.prvProcessTimerOrBlockTask) refers to timers.o(i.prvSampleTimeNow) for prvSampleTimeNow
    timers.o(i.prvProcessTimerOrBlockTask) refers to tasks.o(i.xTaskResumeAll) for xTaskResumeAll
    timers.o(i.prvProcessTimerOrBlockTask) refers to timers.o(i.prvProcessExpiredTimer) for prvProcessExpiredTimer
    timers.o(i.prvProcessTimerOrBlockTask) refers to queue.o(i.vQueueWaitForMessageRestricted) for vQueueWaitForMessageRestricted
    timers.o(i.prvProcessTimerOrBlockTask) refers to port.o(i.vPortYield) for vPortYield
    timers.o(i.prvProcessTimerOrBlockTask) refers to timers.o(.data) for pxOverflowTimerList
    timers.o(i.prvSampleTimeNow) refers to tasks.o(i.xTaskGetTickCount) for xTaskGetTickCount
    timers.o(i.prvSampleTimeNow) refers to timers.o(i.prvSwitchTimerLists) for prvSwitchTimerLists
    timers.o(i.prvSampleTimeNow) refers to timers.o(.data) for xLastTime
    timers.o(i.prvSwitchTimerLists) refers to list.o(i.uxListRemove) for uxListRemove
    timers.o(i.prvSwitchTimerLists) refers to list.o(i.vListInsert) for vListInsert
    timers.o(i.prvSwitchTimerLists) refers to timers.o(i.xTimerGenericCommand) for xTimerGenericCommand
    timers.o(i.prvSwitchTimerLists) refers to timers.o(.data) for pxCurrentTimerList
    timers.o(i.prvTimerTask) refers to timers.o(i.prvGetNextExpireTime) for prvGetNextExpireTime
    timers.o(i.prvTimerTask) refers to timers.o(i.prvProcessTimerOrBlockTask) for prvProcessTimerOrBlockTask
    timers.o(i.prvTimerTask) refers to timers.o(i.prvProcessReceivedCommands) for prvProcessReceivedCommands
    timers.o(i.pvTimerGetTimerID) refers to port.o(i.vPortEnterCritical) for vPortEnterCritical
    timers.o(i.pvTimerGetTimerID) refers to port.o(i.vPortExitCritical) for vPortExitCritical
    timers.o(i.uxTimerGetReloadMode) refers to port.o(i.vPortEnterCritical) for vPortEnterCritical
    timers.o(i.uxTimerGetReloadMode) refers to port.o(i.vPortExitCritical) for vPortExitCritical
    timers.o(i.vTimerSetReloadMode) refers to port.o(i.vPortEnterCritical) for vPortEnterCritical
    timers.o(i.vTimerSetReloadMode) refers to port.o(i.vPortExitCritical) for vPortExitCritical
    timers.o(i.vTimerSetTimerID) refers to port.o(i.vPortEnterCritical) for vPortEnterCritical
    timers.o(i.vTimerSetTimerID) refers to port.o(i.vPortExitCritical) for vPortExitCritical
    timers.o(i.xTimerCreate) refers to heap_4.o(i.pvPortMalloc) for pvPortMalloc
    timers.o(i.xTimerCreate) refers to timers.o(i.prvInitialiseNewTimer) for prvInitialiseNewTimer
    timers.o(i.xTimerCreateTimerTask) refers to timers.o(i.prvCheckForValidListAndQueue) for prvCheckForValidListAndQueue
    timers.o(i.xTimerCreateTimerTask) refers to tasks.o(i.xTaskCreate) for xTaskCreate
    timers.o(i.xTimerCreateTimerTask) refers to timers.o(.data) for xTimerQueue
    timers.o(i.xTimerCreateTimerTask) refers to timers.o(i.prvTimerTask) for prvTimerTask
    timers.o(i.xTimerGenericCommand) refers to tasks.o(i.xTaskGetSchedulerState) for xTaskGetSchedulerState
    timers.o(i.xTimerGenericCommand) refers to queue.o(i.xQueueGenericSend) for xQueueGenericSend
    timers.o(i.xTimerGenericCommand) refers to queue.o(i.xQueueGenericSendFromISR) for xQueueGenericSendFromISR
    timers.o(i.xTimerGenericCommand) refers to timers.o(.data) for xTimerQueue
    timers.o(i.xTimerGetTimerDaemonTaskHandle) refers to timers.o(.data) for xTimerTaskHandle
    timers.o(i.xTimerIsTimerActive) refers to port.o(i.vPortEnterCritical) for vPortEnterCritical
    timers.o(i.xTimerIsTimerActive) refers to port.o(i.vPortExitCritical) for vPortExitCritical
    port.o(.emb_text) refers to tasks.o(.data) for pxCurrentTCB
    port.o(.emb_text) refers to tasks.o(i.vTaskSwitchContext) for vTaskSwitchContext
    port.o(i.SysTick_Handler) refers to port.o(.emb_text) for ulSetInterruptMaskFromISR
    port.o(i.SysTick_Handler) refers to tasks.o(i.xTaskIncrementTick) for xTaskIncrementTick
    port.o(i.prvTaskExitError) refers to port.o(.data) for uxCriticalNesting
    port.o(i.pxPortInitialiseStack) refers to port.o(i.prvTaskExitError) for prvTaskExitError
    port.o(i.vPortEndScheduler) refers to port.o(.data) for uxCriticalNesting
    port.o(i.vPortEnterCritical) refers to port.o(.data) for uxCriticalNesting
    port.o(i.vPortExitCritical) refers to port.o(.data) for uxCriticalNesting
    port.o(i.vPortSetupTimerInterrupt) refers to aeabi_sdiv.o(.text) for __aeabi_uidivmod
    port.o(i.vPortSetupTimerInterrupt) refers to system_sc32f58128.o(.data) for SystemCoreClock
    port.o(i.xPortStartScheduler) refers to port.o(i.vPortSetupTimerInterrupt) for vPortSetupTimerInterrupt
    port.o(i.xPortStartScheduler) refers to port.o(.emb_text) for __asm___6_port_c_39a90d8d__prvPortStartFirstTask
    port.o(i.xPortStartScheduler) refers to port.o(.data) for uxCriticalNesting
    heap_4.o(i.prvHeapInit) refers to heap_4.o(.bss) for ucHeap
    heap_4.o(i.prvHeapInit) refers to heap_4.o(.data) for xStart
    heap_4.o(i.prvInsertBlockIntoFreeList) refers to heap_4.o(.data) for xStart
    heap_4.o(i.pvPortMalloc) refers to tasks.o(i.vTaskSuspendAll) for vTaskSuspendAll
    heap_4.o(i.pvPortMalloc) refers to heap_4.o(i.prvHeapInit) for prvHeapInit
    heap_4.o(i.pvPortMalloc) refers to heap_4.o(i.prvInsertBlockIntoFreeList) for prvInsertBlockIntoFreeList
    heap_4.o(i.pvPortMalloc) refers to tasks.o(i.xTaskResumeAll) for xTaskResumeAll
    heap_4.o(i.pvPortMalloc) refers to heap_4.o(.data) for pxEnd
    heap_4.o(i.vPortFree) refers to tasks.o(i.vTaskSuspendAll) for vTaskSuspendAll
    heap_4.o(i.vPortFree) refers to heap_4.o(i.prvInsertBlockIntoFreeList) for prvInsertBlockIntoFreeList
    heap_4.o(i.vPortFree) refers to tasks.o(i.xTaskResumeAll) for xTaskResumeAll
    heap_4.o(i.vPortFree) refers to heap_4.o(.data) for xBlockAllocatedBit
    heap_4.o(i.vPortGetHeapStats) refers to tasks.o(i.vTaskSuspendAll) for vTaskSuspendAll
    heap_4.o(i.vPortGetHeapStats) refers to tasks.o(i.xTaskResumeAll) for xTaskResumeAll
    heap_4.o(i.vPortGetHeapStats) refers to port.o(i.vPortEnterCritical) for vPortEnterCritical
    heap_4.o(i.vPortGetHeapStats) refers to port.o(i.vPortExitCritical) for vPortExitCritical
    heap_4.o(i.vPortGetHeapStats) refers to heap_4.o(.data) for xStart
    heap_4.o(i.xPortGetFreeHeapSize) refers to heap_4.o(.data) for xFreeBytesRemaining
    heap_4.o(i.xPortGetMinimumEverFreeHeapSize) refers to heap_4.o(.data) for xMinimumEverFreeBytesRemaining
    freertos_cli.o(i.FreeRTOS_CLIGetOutputBuffer) refers to freertos_cli.o(.bss) for cOutputBuffer
    freertos_cli.o(i.FreeRTOS_CLIProcessCommand) refers to strlen.o(.text) for strlen
    freertos_cli.o(i.FreeRTOS_CLIProcessCommand) refers to strncmp.o(.text) for strncmp
    freertos_cli.o(i.FreeRTOS_CLIProcessCommand) refers to freertos_cli.o(i.prvGetNumberOfParameters) for prvGetNumberOfParameters
    freertos_cli.o(i.FreeRTOS_CLIProcessCommand) refers to strncpy.o(.text) for strncpy
    freertos_cli.o(i.FreeRTOS_CLIProcessCommand) refers to freertos_cli.o(.data) for pxCommand
    freertos_cli.o(i.FreeRTOS_CLIProcessCommand) refers to freertos_cli.o(.conststring) for .conststring
    freertos_cli.o(i.FreeRTOS_CLIRegisterCommand) refers to heap_4.o(i.pvPortMalloc) for pvPortMalloc
    freertos_cli.o(i.FreeRTOS_CLIRegisterCommand) refers to port.o(i.vPortEnterCritical) for vPortEnterCritical
    freertos_cli.o(i.FreeRTOS_CLIRegisterCommand) refers to port.o(i.vPortExitCritical) for vPortExitCritical
    freertos_cli.o(i.FreeRTOS_CLIRegisterCommand) refers to freertos_cli.o(.data) for pxLastCommandInList
    freertos_cli.o(i.prvHelpCommand) refers to strncpy.o(.text) for strncpy
    freertos_cli.o(i.prvHelpCommand) refers to freertos_cli.o(.data) for pxCommand
    freertos_cli.o(.constdata) refers to freertos_cli.o(.conststring) for .conststring
    freertos_cli.o(.constdata) refers to freertos_cli.o(i.prvHelpCommand) for prvHelpCommand
    freertos_cli.o(.data) refers to freertos_cli.o(.constdata) for xHelpCommand
    sample-cli-commands.o(i.prvParameterEchoCommand) refers to _printf_percent.o(.ARM.Collect$$_printf_percent$$00000000) for _printf_percent
    sample-cli-commands.o(i.prvParameterEchoCommand) refers to _printf_d.o(.ARM.Collect$$_printf_percent$$00000009) for _printf_d
    sample-cli-commands.o(i.prvParameterEchoCommand) refers to _printf_dec.o(.text) for _printf_int_dec
    sample-cli-commands.o(i.prvParameterEchoCommand) refers to noretval__2sprintf.o(.text) for __2sprintf
    sample-cli-commands.o(i.prvParameterEchoCommand) refers to freertos_cli.o(i.FreeRTOS_CLIGetParameter) for FreeRTOS_CLIGetParameter
    sample-cli-commands.o(i.prvParameterEchoCommand) refers to rt_memclr.o(.text) for __aeabi_memclr
    sample-cli-commands.o(i.prvParameterEchoCommand) refers to strncat.o(.text) for strncat
    sample-cli-commands.o(i.prvParameterEchoCommand) refers to sample-cli-commands.o(.data) for uxParameterNumber
    sample-cli-commands.o(i.prvQueryHeapCommand) refers to _printf_percent.o(.ARM.Collect$$_printf_percent$$00000000) for _printf_percent
    sample-cli-commands.o(i.prvQueryHeapCommand) refers to _printf_d.o(.ARM.Collect$$_printf_percent$$00000009) for _printf_d
    sample-cli-commands.o(i.prvQueryHeapCommand) refers to _printf_dec.o(.text) for _printf_int_dec
    sample-cli-commands.o(i.prvQueryHeapCommand) refers to heap_4.o(i.xPortGetMinimumEverFreeHeapSize) for xPortGetMinimumEverFreeHeapSize
    sample-cli-commands.o(i.prvQueryHeapCommand) refers to heap_4.o(i.xPortGetFreeHeapSize) for xPortGetFreeHeapSize
    sample-cli-commands.o(i.prvQueryHeapCommand) refers to noretval__2sprintf.o(.text) for __2sprintf
    sample-cli-commands.o(i.prvRunTimeStatsCommand) refers to strcpy.o(.text) for strcpy
    sample-cli-commands.o(i.prvRunTimeStatsCommand) refers to strlen.o(.text) for strlen
    sample-cli-commands.o(i.prvRunTimeStatsCommand) refers to tasks.o(i.vTaskGetRunTimeStats) for vTaskGetRunTimeStats
    sample-cli-commands.o(i.prvRunTimeStatsCommand) refers to sample-cli-commands.o(.conststring) for .conststring
    sample-cli-commands.o(i.prvTaskStatsCommand) refers to strcpy.o(.text) for strcpy
    sample-cli-commands.o(i.prvTaskStatsCommand) refers to strlen.o(.text) for strlen
    sample-cli-commands.o(i.prvTaskStatsCommand) refers to tasks.o(i.vTaskList) for vTaskList
    sample-cli-commands.o(i.prvTaskStatsCommand) refers to sample-cli-commands.o(.conststring) for .conststring
    sample-cli-commands.o(i.prvThreeParameterEchoCommand) refers to _printf_percent.o(.ARM.Collect$$_printf_percent$$00000000) for _printf_percent
    sample-cli-commands.o(i.prvThreeParameterEchoCommand) refers to _printf_d.o(.ARM.Collect$$_printf_percent$$00000009) for _printf_d
    sample-cli-commands.o(i.prvThreeParameterEchoCommand) refers to _printf_dec.o(.text) for _printf_int_dec
    sample-cli-commands.o(i.prvThreeParameterEchoCommand) refers to noretval__2sprintf.o(.text) for __2sprintf
    sample-cli-commands.o(i.prvThreeParameterEchoCommand) refers to freertos_cli.o(i.FreeRTOS_CLIGetParameter) for FreeRTOS_CLIGetParameter
    sample-cli-commands.o(i.prvThreeParameterEchoCommand) refers to rt_memclr.o(.text) for __aeabi_memclr
    sample-cli-commands.o(i.prvThreeParameterEchoCommand) refers to strncat.o(.text) for strncat
    sample-cli-commands.o(i.prvThreeParameterEchoCommand) refers to sample-cli-commands.o(.data) for uxParameterNumber
    sample-cli-commands.o(i.vRegisterSampleCLICommands) refers to freertos_cli.o(i.FreeRTOS_CLIRegisterCommand) for FreeRTOS_CLIRegisterCommand
    sample-cli-commands.o(i.vRegisterSampleCLICommands) refers to sample-cli-commands.o(.constdata) for xTaskStats
    sample-cli-commands.o(.constdata) refers to sample-cli-commands.o(.conststring) for .conststring
    sample-cli-commands.o(.constdata) refers to sample-cli-commands.o(i.prvTaskStatsCommand) for prvTaskStatsCommand
    sample-cli-commands.o(.constdata) refers to sample-cli-commands.o(i.prvThreeParameterEchoCommand) for prvThreeParameterEchoCommand
    sample-cli-commands.o(.constdata) refers to sample-cli-commands.o(i.prvParameterEchoCommand) for prvParameterEchoCommand
    sample-cli-commands.o(.constdata) refers to sample-cli-commands.o(i.prvRunTimeStatsCommand) for prvRunTimeStatsCommand
    sample-cli-commands.o(.constdata) refers to sample-cli-commands.o(i.prvQueryHeapCommand) for prvQueryHeapCommand
    uartcommandconsole.o(i.prvUARTCommandConsoleTask) refers to freertos_cli.o(i.FreeRTOS_CLIGetOutputBuffer) for FreeRTOS_CLIGetOutputBuffer
    uartcommandconsole.o(i.prvUARTCommandConsoleTask) refers to serial.o(i.xSerialPortInitMinimal) for xSerialPortInitMinimal
    uartcommandconsole.o(i.prvUARTCommandConsoleTask) refers to strlen.o(.text) for strlen
    uartcommandconsole.o(i.prvUARTCommandConsoleTask) refers to serial.o(i.vSerialPutString) for vSerialPutString
    uartcommandconsole.o(i.prvUARTCommandConsoleTask) refers to serial.o(i.xSerialGetChar) for xSerialGetChar
    uartcommandconsole.o(i.prvUARTCommandConsoleTask) refers to queue.o(i.xQueueSemaphoreTake) for xQueueSemaphoreTake
    uartcommandconsole.o(i.prvUARTCommandConsoleTask) refers to serial.o(i.xSerialPutChar) for xSerialPutChar
    uartcommandconsole.o(i.prvUARTCommandConsoleTask) refers to strcpy.o(.text) for strcpy
    uartcommandconsole.o(i.prvUARTCommandConsoleTask) refers to freertos_cli.o(i.FreeRTOS_CLIProcessCommand) for FreeRTOS_CLIProcessCommand
    uartcommandconsole.o(i.prvUARTCommandConsoleTask) refers to rt_memclr.o(.text) for __aeabi_memclr
    uartcommandconsole.o(i.prvUARTCommandConsoleTask) refers to queue.o(i.xQueueGenericSend) for xQueueGenericSend
    uartcommandconsole.o(i.prvUARTCommandConsoleTask) refers to uartcommandconsole.o(.constdata) for pcWelcomeMessage
    uartcommandconsole.o(i.prvUARTCommandConsoleTask) refers to uartcommandconsole.o(.data) for SerialState
    uartcommandconsole.o(i.prvUARTCommandConsoleTask) refers to uartcommandconsole.o(.bss) for cLastInputString
    uartcommandconsole.o(i.vOutputString) refers to queue.o(i.xQueueSemaphoreTake) for xQueueSemaphoreTake
    uartcommandconsole.o(i.vOutputString) refers to strlen.o(.text) for strlen
    uartcommandconsole.o(i.vOutputString) refers to serial.o(i.vSerialPutString) for vSerialPutString
    uartcommandconsole.o(i.vOutputString) refers to queue.o(i.xQueueGenericSend) for xQueueGenericSend
    uartcommandconsole.o(i.vOutputString) refers to uartcommandconsole.o(.data) for xTxMutex
    uartcommandconsole.o(i.vUARTCommandConsoleStart) refers to queue.o(i.xQueueCreateMutex) for xQueueCreateMutex
    uartcommandconsole.o(i.vUARTCommandConsoleStart) refers to tasks.o(i.xTaskCreate) for xTaskCreate
    uartcommandconsole.o(i.vUARTCommandConsoleStart) refers to uartcommandconsole.o(.data) for xTxMutex
    uartcommandconsole.o(i.vUARTCommandConsoleStart) refers to uartcommandconsole.o(i.prvUARTCommandConsoleTask) for prvUARTCommandConsoleTask
    uartcommandconsole.o(.constdata) refers to uartcommandconsole.o(.conststring) for .conststring
    serial.o(i.vSerialPutString) refers to serial.o(i.xSerialPutChar) for xSerialPutChar
    serial.o(i.vUARTInterruptHandler) refers to queue.o(i.xQueueReceiveFromISR) for xQueueReceiveFromISR
    serial.o(i.vUARTInterruptHandler) refers to queue.o(i.xQueueGenericSendFromISR) for xQueueGenericSendFromISR
    serial.o(i.vUARTInterruptHandler) refers to serial.o(.data) for xCharsForTx
    serial.o(i.xSerialGetChar) refers to queue.o(i.xQueueReceive) for xQueueReceive
    serial.o(i.xSerialGetChar) refers to serial.o(.data) for xRxedChars
    serial.o(i.xSerialPortInitMinimal) refers to queue.o(i.xQueueGenericCreate) for xQueueGenericCreate
    serial.o(i.xSerialPortInitMinimal) refers to serial.o(.data) for xRxedChars
    serial.o(i.xSerialPutChar) refers to queue.o(i.xQueueGenericSend) for xQueueGenericSend
    serial.o(i.xSerialPutChar) refers to queue.o(i.xQueueReceiveFromISR) for xQueueReceiveFromISR
    serial.o(i.xSerialPutChar) refers to serial.o(.data) for xCharsForTx
    qmi8658c_iic.o(i.u16Average) refers to aeabi_sdiv.o(.text) for __aeabi_idivmod
    qmi8658c_iic.o(i.vI2CQMI6858C_Init) refers to bsp_iic.o(i.BSP_I2cInit) for BSP_I2cInit
    qmi8658c_iic.o(i.vI2CQMI6858C_Init) refers to bsp_iic.o(i.vRw_IIC) for vRw_IIC
    qmi8658c_iic.o(i.vI2CQMI6858C_Init) refers to bsp_iic.o(.bss) for strI2cMsg
    qmi8658c_iic.o(i.vI2CQMI_GetData) refers to qmi8658c_iic.o(i.vQMI_GetnData) for vQMI_GetnData
    qmi8658c_iic.o(i.vI2CQMI_GetData) refers to qmi8658c_iic.o(i.u16Average) for u16Average
    qmi8658c_iic.o(i.vI2CQMI_GetData) refers to qmi8658c_iic.o(.data) for zerodata_flag
    qmi8658c_iic.o(i.vI2CQMI_GetData) refers to qmi8658c_iic.o(.bss) for mqi_date_zerocheck
    qmi8658c_iic.o(i.vQMI_GetnData) refers to bsp_iic.o(i.vRw_IIC) for vRw_IIC
    qmi8658c_iic.o(i.vQMI_GetnData) refers to qmi8658c_iic.o(i.u16zero_check) for u16zero_check
    qmi8658c_iic.o(i.vQMI_GetnData) refers to qmi8658c_iic.o(.data) for i
    qmi8658c_iic.o(i.vQMI_GetnData) refers to qmi8658c_iic.o(.bss) for mqi_buff
    qmi8658c_iic.o(i.vQMI_GetnData) refers to bsp_iic.o(.bss) for strI2cMsg
    qmi8658c_iic.o(.data) refers to qmi8658c_iic.o(i.vI2CQMI6858C_Init) for vI2CQMI6858C_Init
    qmi8658c_iic.o(.data) refers to qmi8658c_iic.o(i.vI2CQMI_GetData) for vI2CQMI_GetData
    startup_sc32f58128.o(STACK) refers (Special) to heapauxi.o(.text) for __use_two_region_memory
    startup_sc32f58128.o(HEAP) refers (Special) to heapauxi.o(.text) for __use_two_region_memory
    startup_sc32f58128.o(RESET) refers (Special) to heapauxi.o(.text) for __use_two_region_memory
    startup_sc32f58128.o(RESET) refers to startup_sc32f58128.o(STACK) for __initial_sp
    startup_sc32f58128.o(RESET) refers to startup_sc32f58128.o(.text) for Reset_Handler
    startup_sc32f58128.o(RESET) refers to sl_niv.o(i.NMI_Handler) for NMI_Handler
    startup_sc32f58128.o(RESET) refers to sl_niv.o(i.HardFault_Handler) for HardFault_Handler
    startup_sc32f58128.o(RESET) refers to port.o(i.SVC_Handler) for SVC_Handler
    startup_sc32f58128.o(RESET) refers to port.o(.emb_text) for PendSV_Handler
    startup_sc32f58128.o(RESET) refers to port.o(i.SysTick_Handler) for SysTick_Handler
    startup_sc32f58128.o(RESET) refers to sl_niv.o(i.UART0_RX_IRQHandler) for UART0_RX_IRQHandler
    startup_sc32f58128.o(RESET) refers to sl_niv.o(i.UART0_IRQHandler) for UART0_IRQHandler
    startup_sc32f58128.o(RESET) refers to sl_niv.o(i.UART12_IRQHandler) for UART12_IRQHandler
    startup_sc32f58128.o(RESET) refers to sl_niv.o(i.SSP01_IRQHandler) for SSP01_IRQHandler
    startup_sc32f58128.o(RESET) refers to sl_niv.o(i.SSP23_IIC_IRQHandler) for SSP23_IIC_IRQHandler
    startup_sc32f58128.o(RESET) refers to sl_niv.o(i.CAN_IRQHandler) for CAN_IRQHandler
    startup_sc32f58128.o(RESET) refers to sl_niv.o(i.ECAP0_IRQHandler) for ECAP0_IRQHandler
    startup_sc32f58128.o(RESET) refers to sl_niv.o(i.ECAP1_IRQHandler) for ECAP1_IRQHandler
    startup_sc32f58128.o(RESET) refers to sl_niv.o(i.ECAP2_IRQHandler) for ECAP2_IRQHandler
    startup_sc32f58128.o(RESET) refers to sl_niv.o(i.EQEP0_IRQHandler) for EQEP0_IRQHandler
    startup_sc32f58128.o(RESET) refers to sl_niv.o(i.EQEP1_IRQHandler) for EQEP1_IRQHandler
    startup_sc32f58128.o(RESET) refers to sl_niv.o(i.GPIO_IRQHandler) for GPIO_IRQHandler
    startup_sc32f58128.o(RESET) refers to sl_niv.o(i.DMA_IRQHandler) for DMA_IRQHandler
    startup_sc32f58128.o(RESET) refers to sl_niv.o(i.COPROC_IRQHandler) for COPROC_IRQHandler
    startup_sc32f58128.o(RESET) refers to sl_niv.o(i.SYS_IRQHandler) for SYS_IRQHandler
    startup_sc32f58128.o(RESET) refers to sl_niv.o(i.rsv1_IRQHandler) for rsv1_IRQHandler
    startup_sc32f58128.o(RESET) refers to sl_niv.o(i.TIMER0_IRQHandler) for TIMER0_IRQHandler
    startup_sc32f58128.o(RESET) refers to sl_niv.o(i.TIMER1_IRQHandler) for TIMER1_IRQHandler
    startup_sc32f58128.o(RESET) refers to sl_niv.o(i.TIMER234_IRQHandler) for TIMER234_IRQHandler
    startup_sc32f58128.o(RESET) refers to sl_niv.o(i.ADC1_IRQHandler) for ADC1_IRQHandler
    startup_sc32f58128.o(RESET) refers to sl_niv.o(i.ADC2_IRQHandler) for ADC2_IRQHandler
    startup_sc32f58128.o(RESET) refers to sl_niv.o(i.ADC3_IRQHandler) for ADC3_IRQHandler
    startup_sc32f58128.o(RESET) refers to sl_niv.o(i.ADC_IRQHandler) for ADC_IRQHandler
    startup_sc32f58128.o(RESET) refers to sl_niv.o(i.PWM0_IRQHandler) for PWM0_IRQHandler
    startup_sc32f58128.o(RESET) refers to sl_niv.o(i.PWM3_IRQHandler) for PWM3_IRQHandler
    startup_sc32f58128.o(RESET) refers to sl_niv.o(i.PWM4_IRQHandler) for PWM4_IRQHandler
    startup_sc32f58128.o(RESET) refers to sl_niv.o(i.PWM7_IRQHandler) for PWM7_IRQHandler
    startup_sc32f58128.o(RESET) refers to sl_niv.o(i.PWM1256_IRQHandler) for PWM1256_IRQHandler
    startup_sc32f58128.o(RESET) refers to sl_niv.o(i.ERU0_IRQHandler) for ERU0_IRQHandler
    startup_sc32f58128.o(RESET) refers to sl_niv.o(i.ERU1_IRQHandler) for ERU1_IRQHandler
    startup_sc32f58128.o(RESET) refers to sl_niv.o(i.ERU2_IRQHandler) for ERU2_IRQHandler
    startup_sc32f58128.o(RESET) refers to sl_niv.o(i.ERU3_IRQHandler) for ERU3_IRQHandler
    startup_sc32f58128.o(.text) refers (Special) to heapauxi.o(.text) for __use_two_region_memory
    startup_sc32f58128.o(.text) refers to sl_main.o(i.main_c1) for main_c1
    startup_sc32f58128.o(.text) refers to system_sc32f58128.o(i.SystemInit) for SystemInit
    startup_sc32f58128.o(.text) refers to __main.o(!!!main) for __main
    startup_sc32f58128.o(.text) refers to startup_sc32f58128.o(HEAP) for Heap_Mem
    startup_sc32f58128.o(.text) refers to startup_sc32f58128.o(STACK) for Stack_Mem
    system_sc32f58128.o(i.SystemCoreClockUpdate) refers to aeabi_sdiv.o(.text) for __aeabi_uidivmod
    system_sc32f58128.o(i.SystemCoreClockUpdate) refers to system_sc32f58128.o(.data) for SystemCoreClock
    system_sc32f58128.o(i.SystemInit) refers to system_sc32f58128.o(.data) for SystemCoreClock
    sc32f58128_sysclkcfg.o(i.SysClockConfig) refers to sc32f58128_sysclkcfg.o(i.mg_EnableRCH) for mg_EnableRCH
    sc32f58128_sysclkcfg.o(i.SysClockConfig) refers to sc32f58128_sysclkcfg.o(i.mg_DisableOSC) for mg_DisableOSC
    sc32f58128_sysclkcfg.o(i.SysClockConfig) refers to sc32f58128_sysclkcfg.o(i.mg_EnableOSC) for mg_EnableOSC
    sc32f58128_sysclkcfg.o(i.SysClockConfig) refers to sc32f58128_sysclkcfg.o(i.mg_DisablePLL) for mg_DisablePLL
    sc32f58128_sysclkcfg.o(i.SysClockConfig) refers to sc32f58128_sysclkcfg.o(i.mg_EnablePLL) for mg_EnablePLL
    sc32f58128_sysclkcfg.o(i.SysClockConfig) refers to system_sc32f58128.o(.data) for ExternalOscClock
    sc32f58128_adc.o(i.AdcConfigExample) refers to sc32f58128_adc.o(i.AdcInit) for AdcInit
    sc32f58128_adc.o(i.AdcConfigExample) refers to sc32f58128_adc.o(i.AdcSocConfig) for AdcSocConfig
    sc32f58128_adc.o(i.AdcConfigExample) refers to sc32f58128_adc.o(.data) for g_sAdcSoc
    sc32f58128_adc.o(i.AdcInit) refers to sc32f58128_iap.o(i.NVR_ReadPage) for NVR_ReadPage
    sc32f58128_adc.o(i.AdcInit) refers to sc32f58128_adc.o(i.__get_PRIMASK) for __get_PRIMASK
    sc32f58128_adc.o(i.AdcInit) refers to sc32f58128_adc.o(i.__set_PRIMASK) for __set_PRIMASK
    sc32f58128_adc.o(i.AdcInitRef) refers to sc32f58128_iap.o(i.NVR_ReadPage) for NVR_ReadPage
    sc32f58128_adc.o(i.AdcInitRef) refers to sc32f58128_adc.o(i.__get_PRIMASK) for __get_PRIMASK
    sc32f58128_adc.o(i.AdcInitRef) refers to sc32f58128_adc.o(i.__set_PRIMASK) for __set_PRIMASK
    sc32f58128_adc.o(i.AdcInitial) refers to sc32f58128_adc.o(i.AdcInit) for AdcInit
    sc32f58128_adc.o(i.AdcInitial) refers to sc32f58128_adc.o(i.__get_PRIMASK) for __get_PRIMASK
    sc32f58128_adc.o(i.AdcInitial) refers to sc32f58128_adc.o(i.__set_PRIMASK) for __set_PRIMASK
    sc32f58128_adc.o(i.AdcSocConfig) refers to sc32f58128_adc.o(i.__get_PRIMASK) for __get_PRIMASK
    sc32f58128_adc.o(i.AdcSocConfig) refers to sc32f58128_adc.o(i.__set_PRIMASK) for __set_PRIMASK
    sc32f58128_can.o(i.CAN_GetITStatus) refers to sc32f58128_can.o(i.CheckITStatus) for CheckITStatus
    sc32f58128_cmpss.o(i.CMPSS_CompInit) refers to sc32f58128_cmpss.o(i.__get_PRIMASK) for __get_PRIMASK
    sc32f58128_cmpss.o(i.CMPSS_CompInit) refers to sc32f58128_cmpss.o(i.__set_PRIMASK) for __set_PRIMASK
    sc32f58128_cmpss.o(i.CMPSS_DACInit) refers to sc32f58128_cmpss.o(i.__get_PRIMASK) for __get_PRIMASK
    sc32f58128_cmpss.o(i.CMPSS_DACInit) refers to sc32f58128_cmpss.o(i.__set_PRIMASK) for __set_PRIMASK
    sc32f58128_cmpss.o(i.CMPSS_DACOutEn) refers to sc32f58128_cmpss.o(i.__get_PRIMASK) for __get_PRIMASK
    sc32f58128_cmpss.o(i.CMPSS_DACOutEn) refers to sc32f58128_cmpss.o(i.__set_PRIMASK) for __set_PRIMASK
    sc32f58128_cmpss.o(i.CMPSS_FilterInit) refers to sc32f58128_cmpss.o(i.__get_PRIMASK) for __get_PRIMASK
    sc32f58128_cmpss.o(i.CMPSS_FilterInit) refers to sc32f58128_cmpss.o(i.__set_PRIMASK) for __set_PRIMASK
    sc32f58128_cmpss.o(i.CMPSS_FilterLatchClr) refers to sc32f58128_cmpss.o(i.__get_PRIMASK) for __get_PRIMASK
    sc32f58128_cmpss.o(i.CMPSS_FilterLatchClr) refers to sc32f58128_cmpss.o(i.__set_PRIMASK) for __set_PRIMASK
    sc32f58128_cmpss.o(i.CMPSS_OutSigSel) refers to sc32f58128_cmpss.o(i.__get_PRIMASK) for __get_PRIMASK
    sc32f58128_cmpss.o(i.CMPSS_OutSigSel) refers to sc32f58128_cmpss.o(i.__set_PRIMASK) for __set_PRIMASK
    sc32f58128_cmpss.o(i.CMPSS_RAMPInit) refers to sc32f58128_cmpss.o(i.__get_PRIMASK) for __get_PRIMASK
    sc32f58128_cmpss.o(i.CMPSS_RAMPInit) refers to sc32f58128_cmpss.o(i.__set_PRIMASK) for __set_PRIMASK
    sc32f58128_cmpss.o(i.CMPSS_RegisterLock) refers to sc32f58128_cmpss.o(i.__get_PRIMASK) for __get_PRIMASK
    sc32f58128_cmpss.o(i.CMPSS_RegisterLock) refers to sc32f58128_cmpss.o(i.__set_PRIMASK) for __set_PRIMASK
    sc32f58128_cmpss.o(i.CMPSS_SyncClrEn) refers to sc32f58128_cmpss.o(i.__get_PRIMASK) for __get_PRIMASK
    sc32f58128_cmpss.o(i.CMPSS_SyncClrEn) refers to sc32f58128_cmpss.o(i.__set_PRIMASK) for __set_PRIMASK
    sc32f58128_gpio.o(i.GPIO_FiltConfig) refers to sc32f58128_gpio.o(i.mg_PortSelect) for mg_PortSelect
    sc32f58128_gpio.o(i.GPIO_FiltConfig) refers to sc32f58128_gpio.o(i.__get_PRIMASK) for __get_PRIMASK
    sc32f58128_gpio.o(i.GPIO_FiltConfig) refers to sc32f58128_gpio.o(i.__set_PRIMASK) for __set_PRIMASK
    sc32f58128_gpio.o(i.GPIO_GetGpioStatus) refers to sc32f58128_gpio.o(i.mg_PortSelect) for mg_PortSelect
    sc32f58128_gpio.o(i.GPIO_IntConfig) refers to sc32f58128_gpio.o(i.mg_PortSelect) for mg_PortSelect
    sc32f58128_gpio.o(i.GPIO_ModeSel) refers to sc32f58128_gpio.o(i.__get_PRIMASK) for __get_PRIMASK
    sc32f58128_gpio.o(i.GPIO_ModeSel) refers to sc32f58128_gpio.o(i.__set_PRIMASK) for __set_PRIMASK
    sc32f58128_gpio.o(i.GPIO_MuxSel) refers to sc32f58128_gpio.o(i.mg_PortSelect) for mg_PortSelect
    sc32f58128_gpio.o(i.GPIO_MuxSel) refers to sc32f58128_gpio.o(i.__get_PRIMASK) for __get_PRIMASK
    sc32f58128_gpio.o(i.GPIO_MuxSel) refers to sc32f58128_gpio.o(i.__set_PRIMASK) for __set_PRIMASK
    sc32f58128_gpio.o(i.GPIO_OpenDrainDisable) refers to sc32f58128_gpio.o(i.mg_PortSelect) for mg_PortSelect
    sc32f58128_gpio.o(i.GPIO_OpenDrainDisable) refers to sc32f58128_gpio.o(i.__get_PRIMASK) for __get_PRIMASK
    sc32f58128_gpio.o(i.GPIO_OpenDrainDisable) refers to sc32f58128_gpio.o(i.__set_PRIMASK) for __set_PRIMASK
    sc32f58128_gpio.o(i.GPIO_OpenDrainEnable) refers to sc32f58128_gpio.o(i.mg_PortSelect) for mg_PortSelect
    sc32f58128_gpio.o(i.GPIO_OpenDrainEnable) refers to sc32f58128_gpio.o(i.__get_PRIMASK) for __get_PRIMASK
    sc32f58128_gpio.o(i.GPIO_OpenDrainEnable) refers to sc32f58128_gpio.o(i.__set_PRIMASK) for __set_PRIMASK
    sc32f58128_gpio.o(i.GPIO_OutputDisable) refers to sc32f58128_gpio.o(i.mg_PortSelect) for mg_PortSelect
    sc32f58128_gpio.o(i.GPIO_OutputEnable) refers to sc32f58128_gpio.o(i.mg_PortSelect) for mg_PortSelect
    sc32f58128_gpio.o(i.GPIO_OutputHighCapabilityDisable) refers to sc32f58128_gpio.o(i.mg_PortSelect) for mg_PortSelect
    sc32f58128_gpio.o(i.GPIO_OutputHighCapabilityDisable) refers to sc32f58128_gpio.o(i.__get_PRIMASK) for __get_PRIMASK
    sc32f58128_gpio.o(i.GPIO_OutputHighCapabilityDisable) refers to sc32f58128_gpio.o(i.__set_PRIMASK) for __set_PRIMASK
    sc32f58128_gpio.o(i.GPIO_OutputHighCapabilityEnable) refers to sc32f58128_gpio.o(i.mg_PortSelect) for mg_PortSelect
    sc32f58128_gpio.o(i.GPIO_OutputHighCapabilityEnable) refers to sc32f58128_gpio.o(i.__get_PRIMASK) for __get_PRIMASK
    sc32f58128_gpio.o(i.GPIO_OutputHighCapabilityEnable) refers to sc32f58128_gpio.o(i.__set_PRIMASK) for __set_PRIMASK
    sc32f58128_gpio.o(i.GPIO_PullUpDownSel) refers to sc32f58128_gpio.o(i.mg_PortSelect) for mg_PortSelect
    sc32f58128_gpio.o(i.GPIO_PullUpDownSel) refers to sc32f58128_gpio.o(i.__get_PRIMASK) for __get_PRIMASK
    sc32f58128_gpio.o(i.GPIO_PullUpDownSel) refers to sc32f58128_gpio.o(i.__set_PRIMASK) for __set_PRIMASK
    sc32f58128_gpio.o(i.GPIO_SetHigh) refers to sc32f58128_gpio.o(i.mg_PortSelect) for mg_PortSelect
    sc32f58128_gpio.o(i.GPIO_SetLow) refers to sc32f58128_gpio.o(i.mg_PortSelect) for mg_PortSelect
    sc32f58128_gpio.o(i.GPIO_Toggle) refers to sc32f58128_gpio.o(i.mg_PortSelect) for mg_PortSelect
    sc32f58128_iap.o(i.EraseEEPROMSector) refers to sc32f58128_iap.o(i.Erase_Sector) for Erase_Sector
    sc32f58128_iap.o(i.Erase_Mass) refers to sc32f58128_iap.o(i.__get_PRIMASK) for __get_PRIMASK
    sc32f58128_iap.o(i.Erase_Mass) refers to sc32f58128_iap.o(i.__set_PRIMASK) for __set_PRIMASK
    sc32f58128_iap.o(i.Erase_Sector) refers to sc32f58128_iap.o(i.__get_PRIMASK) for __get_PRIMASK
    sc32f58128_iap.o(i.Erase_Sector) refers to sc32f58128_iap.o(i.__set_PRIMASK) for __set_PRIMASK
    sc32f58128_iap.o(i.InitEEPROM) refers to sc32f58128_iap.o(i.Erase_Sector) for Erase_Sector
    sc32f58128_iap.o(i.Key_Match) refers to sc32f58128_iap.o(i.__get_PRIMASK) for __get_PRIMASK
    sc32f58128_iap.o(i.Key_Match) refers to sc32f58128_iap.o(i.__set_PRIMASK) for __set_PRIMASK
    sc32f58128_iap.o(i.NVR_Erase) refers to sc32f58128_iap.o(i.__get_PRIMASK) for __get_PRIMASK
    sc32f58128_iap.o(i.NVR_Erase) refers to sc32f58128_iap.o(i.__set_PRIMASK) for __set_PRIMASK
    sc32f58128_iap.o(i.NVR_Erase_SZ) refers to sc32f58128_iap.o(i.NVR_Erase_Sector) for NVR_Erase_Sector
    sc32f58128_iap.o(i.NVR_Erase_Sector) refers to sc32f58128_iap.o(i.__get_PRIMASK) for __get_PRIMASK
    sc32f58128_iap.o(i.NVR_Erase_Sector) refers to sc32f58128_iap.o(i.__set_PRIMASK) for __set_PRIMASK
    sc32f58128_iap.o(i.NVR_ProgramPage) refers to sc32f58128_iap.o(i.__get_PRIMASK) for __get_PRIMASK
    sc32f58128_iap.o(i.NVR_ProgramPage) refers to sc32f58128_iap.o(i.__set_PRIMASK) for __set_PRIMASK
    sc32f58128_iap.o(i.NVR_ReadPage) refers to sc32f58128_iap.o(i.__get_PRIMASK) for __get_PRIMASK
    sc32f58128_iap.o(i.NVR_ReadPage) refers to sc32f58128_iap.o(i.__set_PRIMASK) for __set_PRIMASK
    sc32f58128_iap.o(i.ProgramPage) refers to sc32f58128_iap.o(i.__get_PRIMASK) for __get_PRIMASK
    sc32f58128_iap.o(i.ProgramPage) refers to sc32f58128_iap.o(i.__set_PRIMASK) for __set_PRIMASK
    sc32f58128_iap.o(i.ProgramPageByte) refers to sc32f58128_iap.o(i.ReadPage) for ReadPage
    sc32f58128_iap.o(i.ProgramPageByte) refers to sc32f58128_iap.o(i.__get_PRIMASK) for __get_PRIMASK
    sc32f58128_iap.o(i.ProgramPageByte) refers to sc32f58128_iap.o(i.__set_PRIMASK) for __set_PRIMASK
    sc32f58128_iap.o(i.ReadByteEEPROM) refers to sc32f58128_iap.o(i.ReadPage) for ReadPage
    sc32f58128_iap.o(i.ReadPage) refers to sc32f58128_iap.o(i.__get_PRIMASK) for __get_PRIMASK
    sc32f58128_iap.o(i.ReadPage) refers to sc32f58128_iap.o(i.__set_PRIMASK) for __set_PRIMASK
    sc32f58128_iap.o(i.WriteByteEEPROM) refers to sc32f58128_iap.o(i.ProgramPageByte) for ProgramPageByte
    sc32f58128_iap.o(i.WritePageEEPROM) refers to sc32f58128_iap.o(i.ProgramPage) for ProgramPage
    sc32f58128_iic.o(i.I2C_Init) refers to sc32f58128_iic.o(i.I2C_SetCR) for I2C_SetCR
    sc32f58128_pwm.o(i.PwmConfigExample) refers to sc32f58128_pwm.o(i.__get_PRIMASK) for __get_PRIMASK
    sc32f58128_pwm.o(i.PwmConfigExample) refers to sc32f58128_pwm.o(i.__set_PRIMASK) for __set_PRIMASK
    sc32f58128_pwm.o(i.PwmConfigExample) refers to sc32f58128_pwm.o(.data) for mg_sPwmTest
    sc32f58128_qep.o(i.HalfAdjust) refers to aeabi_sdiv.o(.text) for __aeabi_uidivmod
    sc32f58128_qep.o(i.QepCfgInit) refers to llmul.o(.text) for __aeabi_lmul
    sc32f58128_qep.o(i.QepCfgInit) refers to lludiv.o(.text) for __aeabi_uldivmod
    sc32f58128_qep.o(i.QepCfgInit) refers to system_sc32f58128.o(.data) for SystemCoreClock
    sc32f58128_qep.o(i.QepCfgInit) refers to sc32f58128_qep.o(.data) for eQEP
    sc32f58128_qep.o(i.QepForSpeedPosInit) refers to sc32f58128_qep.o(i.QepCfgInit) for QepCfgInit
    sc32f58128_qep.o(i.QepForSpeedPosInit) refers to sc32f58128_qep.o(i.SpeedPositonInit) for SpeedPositonInit
    sc32f58128_qep.o(i.SpeedPositonInit) refers to sc32f58128_qep.o(i.__ARM_common_ll_muluu) for __ARM_common_ll_muluu
    sc32f58128_qep.o(i.SpeedPositonInit) refers to llmul.o(.text) for __aeabi_lmul
    sc32f58128_qep.o(i.SpeedPositonInit) refers to lludiv.o(.text) for __aeabi_uldivmod
    sc32f58128_qep.o(i.SpeedPositonInit) refers to sc32f58128_qep.o(i.HalfAdjust) for HalfAdjust
    sc32f58128_qep.o(i.SpeedPositonInit) refers to system_sc32f58128.o(.data) for SystemCoreClock
    sc32f58128_qep.o(.data) refers to sc32f58128_qep.o(.bss) for SpeedPosition
    sc32f58128_spi.o(i.SPI_Init) refers to aeabi_sdiv.o(.text) for __aeabi_uidivmod
    sc32f58128_spi.o(i.SPI_Init) refers to system_sc32f58128.o(.data) for SystemApb01Clock
    sc32f58128_spi.o(i.SPI_Init) refers to sc32f58128_spi.o(.data) for RealSpiClk
    sc32f58128_spi.o(i.SPI_ReceiveData) refers to sc32f58128_spi.o(.data) for pu8FirstBit
    sc32f58128_spi.o(i.SPI_SendData) refers to sc32f58128_spi.o(.data) for pu8FirstBit
    sc32f58128_timer.o(i.TIMER_TmrConfig) refers to sc32f58128_qep.o(i.__ARM_common_ll_muluu) for __ARM_common_ll_muluu
    sc32f58128_timer.o(i.TIMER_TmrConfig) refers to lludiv.o(.text) for __aeabi_uldivmod
    sc32f58128_timer.o(i.TIMER_TmrConfig) refers to system_sc32f58128.o(.data) for SystemMtClock
    sc32f58128_timer.o(i.TIMER_TmrConfig) refers to sc32f58128_timer.o(.data) for TIMER
    sc32f58128_uart.o(i.UartInit) refers to aeabi_sdiv.o(.text) for __aeabi_uidivmod
    sc32f58128_uart.o(i.UartInit) refers to sc32f58128_uart.o(.data) for UART
    sc32f58128_uart.o(i.UartInit) refers to system_sc32f58128.o(.data) for SystemApb01Clock
    sc32f58128_wdt.o(i.WDT_Init) refers to fflti.o(.text) for __aeabi_ui2f
    sc32f58128_wdt.o(i.WDT_Init) refers to fdiv.o(.text) for __aeabi_fdiv
    sc32f58128_wdt.o(i.WDT_Init) refers to ffltl.o(.text) for __aeabi_ul2f
    sc32f58128_wdt.o(i.WDT_Init) refers to fmul.o(x$fpl$fmul) for __aeabi_fmul
    sc32f58128_wdt.o(i.WDT_Init) refers to ffixul.o(.text) for __aeabi_f2ulz
    sc32f58128_wdt.o(i.WDT_Init) refers to system_sc32f58128.o(.data) for SystemCoreClock
    dbgtool.o(i.DBG_ParaCmdDataRw) refers to dbgtool.o(i.mg_SetParaAdd) for mg_SetParaAdd
    dbgtool.o(i.DBG_ParaCmdDataRw) refers to dbgtool.o(i.mg_GetParaData) for mg_GetParaData
    dbgtool.o(i.DBG_ParaCmdDataRw) refers to dbgtool.o(i.mg_SetParaData) for mg_SetParaData
    dbgtool.o(i.DBG_ParaCmdDataRw) refers to dbgtool.o(.data) for .data
    dbgtool.o(i.DBG_ParamInit) refers to dbgtool.o(i.mg_ParamInit) for mg_ParamInit
    dbgtool.o(i.DBG_ParamInit) refers to dbgtool.o(.bss) for .bss
    dbgtool.o(i.DBG_ParamInit) refers to dbgtool.o(.data) for .data
    dbgtool.o(i.DBG_ReadWaveData) refers to wavesmp.o(i.WAVE_GetWaveData) for WAVE_GetWaveData
    dbgtool.o(i.DBG_ReadWaveData) refers to dbgtool.o(i.mg_TxDataArray) for mg_TxDataArray
    dbgtool.o(i.DBG_ReadWaveData) refers to wavesmp.o(.data) for g_u8WaveStatus
    dbgtool.o(i.DBG_ReadWaveData) refers to dbgtool.o(.data) for .data
    dbgtool.o(i.DBG_Ro) refers to dbgtool.o(i.__ARM_common_switch8) for __ARM_common_switch8
    dbgtool.o(i.DBG_Ro) refers to sc32f58128_qep.o(i.__ARM_common_ll_muluu) for __ARM_common_ll_muluu
    dbgtool.o(i.DBG_Ro) refers to llmul.o(.text) for __aeabi_lmul
    dbgtool.o(i.DBG_Ro) refers to dbgtool.o(i.mg_TxDataArray) for mg_TxDataArray
    dbgtool.o(i.DBG_Ro) refers to dbgcmd.o(.data) for g_u32ParamTableSize
    dbgtool.o(i.DBG_Ro) refers to dbgtool.o(.data) for .data
    dbgtool.o(i.DBG_Ro) refers to dbgcmd.o(.data) for g_pParamsTable
    dbgtool.o(i.DBG_Rw) refers to dbgtool.o(i.DBG_Ro) for DBG_Ro
    dbgtool.o(i.DBG_Rw) refers to dbgtool.o(i.__ARM_common_switch8) for __ARM_common_switch8
    dbgtool.o(i.DBG_Rw) refers to dbgtool.o(i.mg_DataTrans) for mg_DataTrans
    dbgtool.o(i.DBG_Rw) refers to llsdiv.o(.text) for __aeabi_ldivmod
    dbgtool.o(i.DBG_Rw) refers to dbgtool.o(.data) for .data
    dbgtool.o(i.DBG_Rw) refers to dbgcmd.o(.data) for g_u32ParamTableSize
    dbgtool.o(i.DBG_Rw) refers to dbgcmd.o(.data) for g_pParamsTable
    dbgtool.o(i.DBG_RxPackageDeal) refers to dbgtool.o(i.mg_GetRxData) for mg_GetRxData
    dbgtool.o(i.DBG_RxPackageDeal) refers to dbgcmd.o(i.CMD_CmdProcess) for CMD_CmdProcess
    dbgtool.o(i.DBG_RxPackageDeal) refers to dbgtool.o(i.mg_SetCrc) for mg_SetCrc
    dbgtool.o(i.DBG_RxPackageDeal) refers to dbgtool.o(i.DBG_TxData) for DBG_TxData
    dbgtool.o(i.DBG_RxPackageDeal) refers to bsp_dma.o(i.DMA_TranferData2UartTx) for DMA_TranferData2UartTx
    dbgtool.o(i.DBG_RxPackageDeal) refers to dbgtool.o(.data) for .data
    dbgtool.o(i.DBG_RxPackageDeal) refers to dbgtool.o(.bss) for .bss
    dbgtool.o(i.DBG_SetRxData) refers to timer4tick.o(i.TICK_TimerChk) for TICK_TimerChk
    dbgtool.o(i.DBG_SetRxData) refers to timer4tick.o(i.TICK_TimerReset) for TICK_TimerReset
    dbgtool.o(i.DBG_SetRxData) refers to dbgtool.o(.data) for .data
    dbgtool.o(i.DBG_SetRxData) refers to timer4tick.o(.bss) for g_Tmr4C0
    dbgtool.o(i.DBG_SetRxData) refers to dbgtool.o(.bss) for .bss
    dbgtool.o(i.DBG_SetTxData) refers to dbgtool.o(.data) for .data
    dbgtool.o(i.DBG_SetTxData) refers to dbgtool.o(.bss) for .bss
    dbgtool.o(i.DBG_SetTxLiveData) refers to dbgtool.o(i.mg_DataTrans) for mg_DataTrans
    dbgtool.o(i.DBG_SetTxLiveData) refers to dbgtool.o(i.mg_SetCrc) for mg_SetCrc
    dbgtool.o(i.DBG_SetTxLiveData) refers to bsp_dma.o(i.DMA_TranferData2UartTx) for DMA_TranferData2UartTx
    dbgtool.o(i.DBG_SetTxLiveData) refers to dbgtool.o(.bss) for .bss
    dbgtool.o(i.DBG_SetTxLiveData) refers to dbgtool.o(.data) for .data
    dbgtool.o(i.DBG_SetTxStartData) refers to dbgtool.o(.bss) for .bss
    dbgtool.o(i.DBG_TestCode) refers to dbgtool.o(i.mg_SetCrc) for mg_SetCrc
    dbgtool.o(i.DBG_TestCode) refers to dbgtool.o(i.DBG_TxData) for DBG_TxData
    dbgtool.o(i.DBG_TestCode) refers to dbgtool.o(i.DBG_SetRxData) for DBG_SetRxData
    dbgtool.o(i.DBG_TestCode) refers to dbgtool.o(.bss) for .bss
    dbgtool.o(i.DBG_TestCode) refers to dbgtool.o(.data) for .data
    dbgtool.o(i.DBG_TxData) refers to dbgtool.o(.bss) for .bss
    dbgtool.o(i.DBG_TxData) refers to dbgtool.o(.data) for .data
    dbgtool.o(i.DBG_WaveCmdDataRw) refers to wavesmp.o(i.WAVE_GetCmdData) for WAVE_GetCmdData
    dbgtool.o(i.DBG_WaveCmdDataRw) refers to wavesmp.o(i.WAVE_SetCmdData) for WAVE_SetCmdData
    dbgtool.o(i.DBG_WaveCmdDataRw) refers to wavesmp.o(i.WAVE_SetWaveBufSize) for WAVE_SetWaveBufSize
    dbgtool.o(i.DBG_WaveCmdDataRw) refers to dbgtool.o(.data) for .data
    dbgtool.o(i.DBG_WaveCmdStatusRw) refers to dbgtool.o(i.mg_TxDataArray) for mg_TxDataArray
    dbgtool.o(i.DBG_WaveCmdStatusRw) refers to dbgtool.o(.data) for .data
    dbgtool.o(i.DBG_WaveCmdStatusRw) refers to wavesmp.o(.data) for g_u8WaveStatus
    dbgtool.o(i.DBG_WaveTrigRw) refers to wavesmp.o(i.WAVE_ResetWaveParam) for WAVE_ResetWaveParam
    dbgtool.o(i.DBG_WaveTrigRw) refers to dbgtool.o(.data) for .data
    dbgtool.o(i.DBG_WaveTrigRw) refers to wavesmp.o(.data) for g_u8WaveStatus
    dbgtool.o(i.mg_GetParaData) refers to dbgtool.o(i.mg_DataTrans) for mg_DataTrans
    dbgtool.o(i.mg_GetParaData) refers to dbgtool.o(.bss) for .bss
    dbgtool.o(i.mg_GetRxData) refers to dbgtool.o(i.mg_SetCrc) for mg_SetCrc
    dbgtool.o(i.mg_GetRxData) refers to dbgtool.o(.bss) for .bss
    dbgtool.o(i.mg_ParamInit) refers to dbgtool.o(.bss) for .bss
    dbgtool.o(i.mg_ParamInit) refers to dbgtool.o(.data) for .data
    dbgtool.o(i.mg_SetParaAdd) refers to dbgtool.o(i.mg_DataTrans) for mg_DataTrans
    dbgtool.o(i.mg_SetParaAdd) refers to dbgtool.o(.bss) for .bss
    dbgtool.o(i.mg_SetParaData) refers to dbgtool.o(i.mg_DataTrans) for mg_DataTrans
    dbgtool.o(i.mg_SetParaData) refers to dbgtool.o(.bss) for .bss
    dbgcmd.o(i.CMD_CmdProcess) refers to dbgtool.o(i.__ARM_common_switch8) for __ARM_common_switch8
    dbgcmd.o(i.CMD_CmdProcess) refers to dbgtool.o(i.DBG_WaveCmdDataRw) for DBG_WaveCmdDataRw
    dbgcmd.o(i.CMD_CmdProcess) refers to dbgtool.o(i.DBG_WaveCmdStatusRw) for DBG_WaveCmdStatusRw
    dbgcmd.o(i.CMD_CmdProcess) refers to dbgtool.o(i.DBG_ReadWaveData) for DBG_ReadWaveData
    dbgcmd.o(i.CMD_CmdProcess) refers to dbgtool.o(i.DBG_ParaCmdDataRw) for DBG_ParaCmdDataRw
    dbgcmd.o(i.CMD_CmdProcess) refers to dbgtool.o(i.DBG_Rw) for DBG_Rw
    dbgcmd.o(i.CMD_CmdProcess) refers to wavesmp.o(i.WAVE_InitSmpRate4SeqSmp) for WAVE_InitSmpRate4SeqSmp
    dbgcmd.o(.data) refers to dbgcmd.o(.data) for g_u32NotUsed
    dbgcmd.o(.data) refers to wavesmp.o(.data) for g_u8WaveStatus
    dbgcmd.o(.data) refers to dbgcmd.o(.data) for g_u8MotorStatus
    dbgcmd.o(.data) refers to dbgcmd.o(.data) for g_i8Test
    dbgcmd.o(.data) refers to dbgcmd.o(.data) for g_u32version
    dbgcmd.o(.data) refers to dbgcmd.o(.data) for g_i16Test
    dbgcmd.o(.data) refers to dbgcmd.o(.data) for g_u32SpdRef
    dbgcmd.o(.data) refers to dbgcmd.o(.data) for g_i32Test
    dbgcmd.o(.data) refers to dbgtool.o(.data) for g_u32WaveTrigFlg
    wavesmp.o(i.WAVE_FillWaveBuff) refers to wavesmp.o(i.WAVE_SetSmpData2WaveBuff) for WAVE_SetSmpData2WaveBuff
    wavesmp.o(i.WAVE_FillWaveBuff) refers to wavesmp.o(.data) for .data
    wavesmp.o(i.WAVE_FillWaveBuff) refers to dbgtool.o(.data) for g_u8AutoDbgSmp
    wavesmp.o(i.WAVE_GetCmdData) refers to wavesmp.o(.bss) for .bss
    wavesmp.o(i.WAVE_GetWaveData) refers to wavesmp.o(i.WAVE_ResetWaveParam) for WAVE_ResetWaveParam
    wavesmp.o(i.WAVE_GetWaveData) refers to wavesmp.o(.bss) for .bss
    wavesmp.o(i.WAVE_GetWaveData) refers to wavesmp.o(.data) for .data
    wavesmp.o(i.WAVE_Init) refers to wavesmp.o(i.WAVE_SetWaveBufSize) for WAVE_SetWaveBufSize
    wavesmp.o(i.WAVE_Init) refers to wavesmp.o(i.WAVE_GetCmdData) for WAVE_GetCmdData
    wavesmp.o(i.WAVE_Init) refers to wavesmp.o(.bss) for .bss
    wavesmp.o(i.WAVE_Init) refers to wavesmp.o(.data) for .data
    wavesmp.o(i.WAVE_InitSmpRate4SeqSmp) refers to wavesmp.o(.bss) for .bss
    wavesmp.o(i.WAVE_ResetWaveParam) refers to wavesmp.o(.bss) for .bss
    wavesmp.o(i.WAVE_ResetWaveParam) refers to wavesmp.o(.data) for .data
    wavesmp.o(i.WAVE_SetCmdData) refers to wavesmp.o(.bss) for .bss
    wavesmp.o(i.WAVE_SetSmpData2WaveBuff) refers to wavesmp.o(i.mg_FillLiveData) for mg_FillLiveData
    wavesmp.o(i.WAVE_SetSmpData2WaveBuff) refers to aeabi_sdiv.o(.text) for __aeabi_uidivmod
    wavesmp.o(i.WAVE_SetSmpData2WaveBuff) refers to wavesmp.o(i.WAVE_SetWaveBufSize) for WAVE_SetWaveBufSize
    wavesmp.o(i.WAVE_SetSmpData2WaveBuff) refers to wavesmp.o(.data) for .data
    wavesmp.o(i.WAVE_SetSmpData2WaveBuff) refers to dbgtool.o(.data) for g_u8AutoDbgSmp
    wavesmp.o(i.WAVE_SetSmpData2WaveBuff) refers to dbgtool.o(.bss) for g_sLiveData
    wavesmp.o(i.WAVE_SetSmpData2WaveBuff) refers to dbgtool.o(.bss) for g_sLivdDataBuf
    wavesmp.o(i.WAVE_SetSmpData2WaveBuff) refers to wavesmp.o(.bss) for .bss
    wavesmp.o(i.WAVE_SetWaveBufSize) refers to aeabi_sdiv.o(.text) for __aeabi_uidivmod
    wavesmp.o(i.WAVE_SetWaveBufSize) refers to wavesmp.o(.data) for .data
    wavesmp.o(i.WAVE_SetWaveBufSize) refers to wavesmp.o(.bss) for .bss
    wavesmp.o(i.WAVE_SetWaveBufSize) refers to dbgtool.o(.bss) for g_sLiveData
    wavesmp.o(i.WAVE_SetWaveBufSize) refers to dbgtool.o(i.DBG_SetTxLiveData) for DBG_SetTxLiveData
    wavesmp.o(i.WAVE_SetWaveBufSize) refers to dbgtool.o(.bss) for g_sLivdDataBuf
    wavesmp.o(i.mg_FillLiveData) refers to dbgtool.o(i.mg_DataTrans) for mg_DataTrans
    wavesmp.o(i.mg_FillLiveData) refers to wavesmp.o(.bss) for .bss
    llsdiv.o(.text) refers to lludiv.o(.text) for __aeabi_uldivmod
    __2sprintf.o(.text) refers to _printf_char_common.o(.text) for _printf_char_common
    __2sprintf.o(.text) refers to _sputc.o(.text) for _sputc
    noretval__2sprintf.o(.text) refers to _printf_char_common.o(.text) for _printf_char_common
    noretval__2sprintf.o(.text) refers to _sputc.o(.text) for _sputc
    __printf.o(.text) refers to _printf_percent.o(.ARM.Collect$$_printf_percent$$00000000) for _printf_percent
    _printf_str.o(.text) refers (Special) to _printf_char.o(.text) for _printf_cs_common
    _printf_dec.o(.text) refers to rtudiv10.o(.text) for __rt_udiv10
    _printf_dec.o(.text) refers to _printf_intcommon.o(.text) for _printf_int_common
    __printf_flags.o(.text) refers to _printf_percent.o(.ARM.Collect$$_printf_percent$$00000000) for _printf_percent
    __printf_flags.o(.text) refers to __printf_flags.o(.constdata) for .constdata
    __printf_ss.o(.text) refers to _printf_percent.o(.ARM.Collect$$_printf_percent$$00000000) for _printf_percent
    __printf_flags_ss.o(.text) refers to _printf_percent.o(.ARM.Collect$$_printf_percent$$00000000) for _printf_percent
    __printf_flags_ss.o(.text) refers to __printf_flags_ss.o(.constdata) for .constdata
    __printf_wp.o(.text) refers to __printf_wp.o(i._is_digit) for _is_digit
    __printf_wp.o(.text) refers to _printf_percent.o(.ARM.Collect$$_printf_percent$$00000000) for _printf_percent
    __printf_flags_wp.o(.text) refers to __printf_wp.o(i._is_digit) for _is_digit
    __printf_flags_wp.o(.text) refers to _printf_percent.o(.ARM.Collect$$_printf_percent$$00000000) for _printf_percent
    __printf_flags_wp.o(.text) refers to __printf_flags_wp.o(.constdata) for .constdata
    __printf_ss_wp.o(.text) refers to __printf_wp.o(i._is_digit) for _is_digit
    __printf_ss_wp.o(.text) refers to _printf_percent.o(.ARM.Collect$$_printf_percent$$00000000) for _printf_percent
    __printf_flags_ss_wp.o(.text) refers to __printf_wp.o(i._is_digit) for _is_digit
    __printf_flags_ss_wp.o(.text) refers to _printf_percent.o(.ARM.Collect$$_printf_percent$$00000000) for _printf_percent
    __printf_flags_ss_wp.o(.text) refers to __printf_flags_ss_wp.o(.constdata) for .constdata
    _printf_c.o(.ARM.Collect$$_printf_percent$$00000013) refers (Weak) to _printf_char.o(.text) for _printf_char
    _printf_d.o(.ARM.Collect$$_printf_percent$$00000009) refers (Weak) to _printf_dec.o(.text) for _printf_int_dec
    _printf_u.o(.ARM.Collect$$_printf_percent$$0000000A) refers (Weak) to _printf_dec.o(.text) for _printf_int_dec
    _printf_percent.o(.ARM.Collect$$_printf_percent$$00000000) refers (Special) to _printf_percent_end.o(.ARM.Collect$$_printf_percent$$00000017) for _printf_percent_end
    rt_memcpy.o(.text) refers to rt_memcpy.o(.emb_text) for __aeabi_memcpy4
    memset.o(.text) refers to rt_memclr.o(.text) for _memset
    aeabi_memset.o(.text) refers to rt_memclr.o(.text) for _memset
    strncpy.o(.text) refers to rt_memclr.o(.text) for __rt_memclr
    __main.o(!!!main) refers to __rtentry.o(.ARM.Collect$$rtentry$$00000000) for __rt_entry
    fdiv.o(.text) refers (Special) to usenofp.o(x$fpl$usenofp) for __I$use$fp
    fdiv.o(.text) refers to fdiv.o(.constdata) for .constdata
    fdiv.o(.constdata) refers (Special) to usenofp.o(x$fpl$usenofp) for __I$use$fp
    ffixul.o(.text) refers (Special) to usenofp.o(x$fpl$usenofp) for __I$use$fp
    fflti.o(.text) refers (Special) to usenofp.o(x$fpl$usenofp) for __I$use$fp
    ffltl.o(.text) refers (Special) to usenofp.o(x$fpl$usenofp) for __I$use$fp
    fmul.o(x$fpl$fmul) refers (Special) to usenofp.o(x$fpl$usenofp) for __I$use$fp
    __rtentry.o(.ARM.Collect$$rtentry$$00000000) refers (Special) to __rtentry2.o(.ARM.Collect$$rtentry$$0000000A) for __rt_entry_li
    __rtentry.o(.ARM.Collect$$rtentry$$00000000) refers (Special) to __rtentry2.o(.ARM.Collect$$rtentry$$0000000D) for __rt_entry_main
    __rtentry.o(.ARM.Collect$$rtentry$$00000000) refers (Special) to __rtentry2.o(.ARM.Collect$$rtentry$$0000000C) for __rt_entry_postli_1
    __rtentry.o(.ARM.Collect$$rtentry$$00000000) refers (Special) to __rtentry2.o(.ARM.Collect$$rtentry$$00000009) for __rt_entry_postsh_1
    __rtentry.o(.ARM.Collect$$rtentry$$00000000) refers (Special) to __rtentry2.o(.ARM.Collect$$rtentry$$00000002) for __rt_entry_presh_1
    __rtentry.o(.ARM.Collect$$rtentry$$00000000) refers (Special) to __rtentry4.o(.ARM.Collect$$rtentry$$00000004) for __rt_entry_sh
    aeabi_idiv0_sigfpe.o(.text) refers to rt_div0.o(.text) for __rt_div0
    aeabi_ldiv0_sigfpe.o(.text) refers to rt_div0.o(.text) for __rt_div0
    _printf_char_common.o(.text) refers to __printf.o(.text) for __printf
    _printf_char.o(.text) refers (Weak) to _printf_str.o(.text) for _printf_str
    __rtentry2.o(.ARM.Collect$$rtentry$$00000008) refers to boardinit2.o(.text) for _platform_post_stackheap_init
    __rtentry2.o(.ARM.Collect$$rtentry$$0000000A) refers to libinit.o(.ARM.Collect$$libinit$$00000000) for __rt_lib_init
    __rtentry2.o(.ARM.Collect$$rtentry$$0000000B) refers to boardinit3.o(.text) for _platform_post_lib_init
    __rtentry2.o(.ARM.Collect$$rtentry$$0000000D) refers to sl_main.o(i.main) for main
    __rtentry2.o(.ARM.Collect$$rtentry$$0000000D) refers to exit.o(.text) for exit
    __rtentry2.o(.ARM.exidx) refers to __rtentry2.o(.ARM.Collect$$rtentry$$00000001) for .ARM.Collect$$rtentry$$00000001
    __rtentry2.o(.ARM.exidx) refers to __rtentry2.o(.ARM.Collect$$rtentry$$00000008) for .ARM.Collect$$rtentry$$00000008
    __rtentry2.o(.ARM.exidx) refers to __rtentry2.o(.ARM.Collect$$rtentry$$0000000A) for .ARM.Collect$$rtentry$$0000000A
    __rtentry2.o(.ARM.exidx) refers to __rtentry2.o(.ARM.Collect$$rtentry$$0000000B) for .ARM.Collect$$rtentry$$0000000B
    __rtentry2.o(.ARM.exidx) refers to __rtentry2.o(.ARM.Collect$$rtentry$$0000000D) for .ARM.Collect$$rtentry$$0000000D
    __rtentry4.o(.ARM.Collect$$rtentry$$00000004) refers to sys_stackheap_outer.o(.text) for __user_setup_stackheap
    __rtentry4.o(.ARM.exidx) refers to __rtentry4.o(.ARM.Collect$$rtentry$$00000004) for .ARM.Collect$$rtentry$$00000004
    rt_div0.o(.text) refers to defsig_fpe_outer.o(.text) for __rt_SIGFPE
    sys_stackheap_outer.o(.text) refers to libspace.o(.text) for __user_perproc_libspace
    sys_stackheap_outer.o(.text) refers to startup_sc32f58128.o(.text) for __user_initial_stackheap
    sys_stackheap_outer.o(__vectab_stack_and_reset_area) refers to tempstk.o(.text) for __temporary_stack_top
    sys_stackheap_outer.o(__vectab_stack_and_reset_area) refers to __main.o(!!!main) for __main
    exit.o(.text) refers to rtexit.o(.ARM.Collect$$rtexit$$00000000) for __rt_exit
    defsig_fpe_outer.o(.text) refers to defsig_fpe_inner.o(.text) for __rt_SIGFPE_inner
    defsig_fpe_outer.o(.text) refers to defsig_exit.o(.text) for __sig_exit
    defsig_fpe_formal.o(.text) refers to rt_raise.o(.text) for __rt_raise
    libinit.o(.ARM.Collect$$libinit$$00000000) refers (Special) to libinit2.o(.ARM.Collect$$libinit$$0000002E) for __rt_lib_init_alloca_1
    libinit.o(.ARM.Collect$$libinit$$00000000) refers (Special) to libinit2.o(.ARM.Collect$$libinit$$0000002C) for __rt_lib_init_argv_1
    libinit.o(.ARM.Collect$$libinit$$00000000) refers (Special) to libinit2.o(.ARM.Collect$$libinit$$0000001B) for __rt_lib_init_atexit_1
    libinit.o(.ARM.Collect$$libinit$$00000000) refers (Special) to libinit2.o(.ARM.Collect$$libinit$$00000021) for __rt_lib_init_clock_1
    libinit.o(.ARM.Collect$$libinit$$00000000) refers (Special) to libinit2.o(.ARM.Collect$$libinit$$00000032) for __rt_lib_init_cpp_1
    libinit.o(.ARM.Collect$$libinit$$00000000) refers (Special) to libinit2.o(.ARM.Collect$$libinit$$00000030) for __rt_lib_init_exceptions_1
    libinit.o(.ARM.Collect$$libinit$$00000000) refers (Special) to libinit2.o(.ARM.Collect$$libinit$$00000002) for __rt_lib_init_fp_1
    libinit.o(.ARM.Collect$$libinit$$00000000) refers (Special) to libinit2.o(.ARM.Collect$$libinit$$0000001F) for __rt_lib_init_fp_trap_1
    libinit.o(.ARM.Collect$$libinit$$00000000) refers (Special) to libinit2.o(.ARM.Collect$$libinit$$00000023) for __rt_lib_init_getenv_1
    libinit.o(.ARM.Collect$$libinit$$00000000) refers (Special) to libinit2.o(.ARM.Collect$$libinit$$0000000A) for __rt_lib_init_heap_1
    libinit.o(.ARM.Collect$$libinit$$00000000) refers (Special) to libinit2.o(.ARM.Collect$$libinit$$00000011) for __rt_lib_init_lc_collate_1
    libinit.o(.ARM.Collect$$libinit$$00000000) refers (Special) to libinit2.o(.ARM.Collect$$libinit$$00000013) for __rt_lib_init_lc_ctype_1
    libinit.o(.ARM.Collect$$libinit$$00000000) refers (Special) to libinit2.o(.ARM.Collect$$libinit$$00000015) for __rt_lib_init_lc_monetary_1
    libinit.o(.ARM.Collect$$libinit$$00000000) refers (Special) to libinit2.o(.ARM.Collect$$libinit$$00000017) for __rt_lib_init_lc_numeric_1
    libinit.o(.ARM.Collect$$libinit$$00000000) refers (Special) to libinit2.o(.ARM.Collect$$libinit$$00000019) for __rt_lib_init_lc_time_1
    libinit.o(.ARM.Collect$$libinit$$00000000) refers (Special) to libinit2.o(.ARM.Collect$$libinit$$00000004) for __rt_lib_init_preinit_1
    libinit.o(.ARM.Collect$$libinit$$00000000) refers (Special) to libinit2.o(.ARM.Collect$$libinit$$0000000E) for __rt_lib_init_rand_1
    libinit.o(.ARM.Collect$$libinit$$00000000) refers (Special) to libinit2.o(.ARM.Collect$$libinit$$00000033) for __rt_lib_init_return
    libinit.o(.ARM.Collect$$libinit$$00000000) refers (Special) to libinit2.o(.ARM.Collect$$libinit$$0000001D) for __rt_lib_init_signal_1
    libinit.o(.ARM.Collect$$libinit$$00000000) refers (Special) to libinit2.o(.ARM.Collect$$libinit$$00000025) for __rt_lib_init_stdio_1
    libinit.o(.ARM.Collect$$libinit$$00000000) refers (Special) to libinit2.o(.ARM.Collect$$libinit$$0000000C) for __rt_lib_init_user_alloc_1
    libspace.o(.text) refers to libspace.o(.bss) for __libspace_start
    rtexit.o(.ARM.Collect$$rtexit$$00000000) refers (Special) to rtexit2.o(.ARM.Collect$$rtexit$$00000004) for __rt_exit_exit
    rtexit.o(.ARM.Collect$$rtexit$$00000000) refers (Special) to rtexit2.o(.ARM.Collect$$rtexit$$00000003) for __rt_exit_ls
    rtexit.o(.ARM.Collect$$rtexit$$00000000) refers (Special) to rtexit2.o(.ARM.Collect$$rtexit$$00000002) for __rt_exit_prels_1
    rtexit.o(.ARM.exidx) refers (Special) to rtexit2.o(.ARM.Collect$$rtexit$$00000004) for __rt_exit_exit
    rtexit.o(.ARM.exidx) refers (Special) to rtexit2.o(.ARM.Collect$$rtexit$$00000003) for __rt_exit_ls
    rtexit.o(.ARM.exidx) refers (Special) to rtexit2.o(.ARM.Collect$$rtexit$$00000002) for __rt_exit_prels_1
    rtexit.o(.ARM.exidx) refers to rtexit.o(.ARM.Collect$$rtexit$$00000000) for .ARM.Collect$$rtexit$$00000000
    rt_raise.o(.text) refers to __raise.o(.text) for __raise
    rt_raise.o(.text) refers to sys_exit.o(.text) for _sys_exit
    defsig_exit.o(.text) refers to sys_exit.o(.text) for _sys_exit
    defsig_fpe_inner.o(.text) refers to defsig_general.o(.text) for __default_signal_display
    libinit2.o(.ARM.Collect$$libinit$$00000010) refers to libinit2.o(.ARM.Collect$$libinit$$0000000F) for .ARM.Collect$$libinit$$0000000F
    libinit2.o(.ARM.Collect$$libinit$$00000012) refers to libinit2.o(.ARM.Collect$$libinit$$0000000F) for .ARM.Collect$$libinit$$0000000F
    libinit2.o(.ARM.Collect$$libinit$$00000014) refers to libinit2.o(.ARM.Collect$$libinit$$0000000F) for .ARM.Collect$$libinit$$0000000F
    libinit2.o(.ARM.Collect$$libinit$$00000016) refers to libinit2.o(.ARM.Collect$$libinit$$0000000F) for .ARM.Collect$$libinit$$0000000F
    libinit2.o(.ARM.Collect$$libinit$$00000018) refers to libinit2.o(.ARM.Collect$$libinit$$0000000F) for .ARM.Collect$$libinit$$0000000F
    libinit2.o(.ARM.Collect$$libinit$$00000026) refers to argv_veneer.o(.text) for __ARM_argv_veneer
    libinit2.o(.ARM.Collect$$libinit$$00000027) refers to argv_veneer.o(.text) for __ARM_argv_veneer
    sys_exit.o(.text) refers (Special) to use_no_semi.o(.text) for __I$use$semihosting
    sys_exit.o(.text) refers (Special) to indicate_semi.o(.text) for __semihosting_library_function
    rtexit2.o(.ARM.Collect$$rtexit$$00000003) refers to libshutdown.o(.ARM.Collect$$libshutdown$$00000000) for __rt_lib_shutdown
    rtexit2.o(.ARM.Collect$$rtexit$$00000004) refers to sys_exit.o(.text) for _sys_exit
    rtexit2.o(.ARM.exidx) refers to rtexit2.o(.ARM.Collect$$rtexit$$00000001) for .ARM.Collect$$rtexit$$00000001
    rtexit2.o(.ARM.exidx) refers to rtexit2.o(.ARM.Collect$$rtexit$$00000003) for .ARM.Collect$$rtexit$$00000003
    rtexit2.o(.ARM.exidx) refers to rtexit2.o(.ARM.Collect$$rtexit$$00000004) for .ARM.Collect$$rtexit$$00000004
    __raise.o(.text) refers to defsig.o(CL$$defsig) for __default_signal_handler
    defsig_general.o(.text) refers to sys_wrch.o(.text) for _ttywrch
    sys_wrch.o(.text) refers (Special) to use_no_semi.o(.text) for __I$use$semihosting
    sys_wrch.o(.text) refers (Special) to indicate_semi.o(.text) for __semihosting_library_function
    defsig.o(CL$$defsig) refers to defsig_fpe_inner.o(.text) for __rt_SIGFPE_inner
    defsig.o(CL$$defsig) refers to defsig_rtmem_inner.o(.text) for __rt_SIGRTMEM_inner
    _get_argv_nomalloc.o(.text) refers (Special) to hrguard.o(.text) for __heap_region$guard
    _get_argv_nomalloc.o(.text) refers to defsig_rtmem_outer.o(.text) for __rt_SIGRTMEM
    _get_argv_nomalloc.o(.text) refers to sys_command.o(.text) for _sys_command_string
    libshutdown.o(.ARM.Collect$$libshutdown$$00000000) refers (Special) to libshutdown2.o(.ARM.Collect$$libshutdown$$00000002) for __rt_lib_shutdown_cpp_1
    libshutdown.o(.ARM.Collect$$libshutdown$$00000000) refers (Special) to libshutdown2.o(.ARM.Collect$$libshutdown$$00000007) for __rt_lib_shutdown_fp_trap_1
    libshutdown.o(.ARM.Collect$$libshutdown$$00000000) refers (Special) to libshutdown2.o(.ARM.Collect$$libshutdown$$0000000F) for __rt_lib_shutdown_heap_1
    libshutdown.o(.ARM.Collect$$libshutdown$$00000000) refers (Special) to libshutdown2.o(.ARM.Collect$$libshutdown$$00000010) for __rt_lib_shutdown_return
    libshutdown.o(.ARM.Collect$$libshutdown$$00000000) refers (Special) to libshutdown2.o(.ARM.Collect$$libshutdown$$0000000A) for __rt_lib_shutdown_signal_1
    libshutdown.o(.ARM.Collect$$libshutdown$$00000000) refers (Special) to libshutdown2.o(.ARM.Collect$$libshutdown$$00000004) for __rt_lib_shutdown_stdio_1
    libshutdown.o(.ARM.Collect$$libshutdown$$00000000) refers (Special) to libshutdown2.o(.ARM.Collect$$libshutdown$$0000000C) for __rt_lib_shutdown_user_alloc_1
    sys_command.o(.text) refers (Special) to use_no_semi.o(.text) for __I$use$semihosting
    sys_command.o(.text) refers (Special) to indicate_semi.o(.text) for __semihosting_library_function
    defsig_abrt_inner.o(.text) refers to defsig_general.o(.text) for __default_signal_display
    defsig_rtred_inner.o(.text) refers to defsig_general.o(.text) for __default_signal_display
    defsig_rtmem_inner.o(.text) refers to defsig_general.o(.text) for __default_signal_display
    defsig_rtmem_outer.o(.text) refers to defsig_rtmem_inner.o(.text) for __rt_SIGRTMEM_inner
    defsig_rtmem_outer.o(.text) refers to defsig_exit.o(.text) for __sig_exit
    defsig_rtmem_formal.o(.text) refers to rt_raise.o(.text) for __rt_raise
    defsig_stak_inner.o(.text) refers to defsig_general.o(.text) for __default_signal_display
    defsig_pvfn_inner.o(.text) refers to defsig_general.o(.text) for __default_signal_display
    defsig_cppl_inner.o(.text) refers to defsig_general.o(.text) for __default_signal_display
    defsig_segv_inner.o(.text) refers to defsig_general.o(.text) for __default_signal_display
    defsig_other.o(.text) refers to defsig_general.o(.text) for __default_signal_display
    bsp_gpio.o(i.silan_mult_IQxmpy) refers to bsp_gpio.o(i.__get_PRIMASK) for __get_PRIMASK
    bsp_gpio.o(i.silan_mult_IQxmpy) refers to bsp_gpio.o(i.__set_PRIMASK) for __set_PRIMASK
    bsp_gpio.o(i.silan_mult_IQxmpy) refers to llshl.o(.text) for __aeabi_llsl


==============================================================================

Removing Unused input sections from the image.

    Removing sl_main.o(.rev16_text), (4 bytes).
    Removing sl_main.o(.revsh_text), (4 bytes).
    Removing sl_niv.o(.rev16_text), (4 bytes).
    Removing sl_niv.o(.revsh_text), (4 bytes).
    Removing sl_niv.o(i.PendSV_Handler_notuse), (2 bytes).
    Removing sl_niv.o(i.SVC_Handler_notuse), (2 bytes).
    Removing sl_niv.o(i.SysTick_Handler_notuse), (16 bytes).
    Removing usertask.o(.rev16_text), (4 bytes).
    Removing usertask.o(.revsh_text), (4 bytes).
    Removing devinit.o(.rev16_text), (4 bytes).
    Removing devinit.o(.revsh_text), (4 bytes).
    Removing devinit.o(i.INIT_DeviceInit_c1), (88 bytes).
    Removing devinit.o(i.mg_SetIRQ_c1), (6 bytes).
    Removing devinit.o(i.mg_WdtInit), (56 bytes).
    Removing bsp_gpio.o(.rev16_text), (4 bytes).
    Removing bsp_gpio.o(.revsh_text), (4 bytes).
    Removing bsp_dma.o(.rev16_text), (4 bytes).
    Removing bsp_dma.o(.revsh_text), (4 bytes).
    Removing bsp_dma.o(i.DMA_Init), (160 bytes).
    Removing bsp_dma.o(i.DMA_TranferData2UartTx), (296 bytes).
    Removing bsp_dma.o(i.SendNotSendData2UartTx), (372 bytes).
    Removing bsp_dma.o(.data), (4 bytes).
    Removing bsp_uart.o(.rev16_text), (4 bytes).
    Removing bsp_uart.o(.revsh_text), (4 bytes).
    Removing bsp_uart.o(i.BSP_UartInit), (136 bytes).
    Removing bsp_adc.o(.rev16_text), (4 bytes).
    Removing bsp_adc.o(.revsh_text), (4 bytes).
    Removing bsp_adc.o(i.AD_PIN_SEL), (36 bytes).
    Removing bsp_adc.o(i.BSP_AdcInit), (324 bytes).
    Removing bsp_pwm.o(.rev16_text), (4 bytes).
    Removing bsp_pwm.o(.revsh_text), (4 bytes).
    Removing bsp_pwm.o(i.BSP_PwmInit), (54 bytes).
    Removing bsp_pwm.o(i.PWM_Duty_CFG), (28 bytes).
    Removing bsp_pwm.o(i.PWM_INT_CFG), (88 bytes).
    Removing bsp_pwm.o(i.PWM_PROTECT_CFG), (188 bytes).
    Removing bsp_pwm.o(i.PWM_ResolveIncentiveInit), (364 bytes).
    Removing bsp_pwm.o(i.PWM_START), (96 bytes).
    Removing bsp_pwm.o(i.TZ_clear), (104 bytes).
    Removing bsp_pwm.o(i.motor_start), (32 bytes).
    Removing bsp_pwm.o(i.motor_stop), (116 bytes).
    Removing bsp_iic.o(.rev16_text), (4 bytes).
    Removing bsp_iic.o(.revsh_text), (4 bytes).
    Removing bsp_iic.o(i.BSP_I2cInit), (124 bytes).
    Removing bsp_iic.o(i.BSP_I2cStart), (20 bytes).
    Removing bsp_iic.o(i.BSP_IsI2cReady), (24 bytes).
    Removing bsp_iic.o(i.__NVIC_SetPriority), (120 bytes).
    Removing bsp_iic.o(i.u16RwI2cBus), (152 bytes).
    Removing bsp_iic.o(i.vRw_IIC), (88 bytes).
    Removing bsp_spi.o(.rev16_text), (4 bytes).
    Removing bsp_spi.o(.revsh_text), (4 bytes).
    Removing bsp_spi.o(.data), (4 bytes).
    Removing timer4tick.o(i.TICK_TimerChk), (28 bytes).
    Removing timer4tick.o(i.TICK_TimerChkCnt), (12 bytes).
    Removing timer4tick.o(i.TICK_TimerClose), (22 bytes).
    Removing timer4tick.o(i.TICK_TimerInit4C0), (36 bytes).
    Removing timer4tick.o(i.TICK_TimerInit4C1), (36 bytes).
    Removing timer4tick.o(i.TICK_TimerReset), (24 bytes).
    Removing timer4tick.o(i.TICK_TimerSet), (30 bytes).
    Removing timer4tick.o(i.TICK_TimerTickInit), (28 bytes).
    Removing timer4tick.o(i.TICK_TimerTickRunning), (132 bytes).
    Removing timer4tick.o(.bss), (84 bytes).
    Removing timer4tick.o(.data), (4 bytes).
    Removing event_groups.o(i.prvTestWaitCondition), (34 bytes).
    Removing event_groups.o(i.uxEventGroupGetNumber), (14 bytes).
    Removing event_groups.o(i.vEventGroupClearBitsCallback), (16 bytes).
    Removing event_groups.o(i.vEventGroupDelete), (68 bytes).
    Removing event_groups.o(i.vEventGroupSetBitsCallback), (16 bytes).
    Removing event_groups.o(i.vEventGroupSetNumber), (4 bytes).
    Removing event_groups.o(i.xEventGroupClearBits), (62 bytes).
    Removing event_groups.o(i.xEventGroupCreate), (28 bytes).
    Removing event_groups.o(i.xEventGroupGetBitsFromISR), (24 bytes).
    Removing event_groups.o(i.xEventGroupSetBits), (200 bytes).
    Removing event_groups.o(i.xEventGroupSync), (238 bytes).
    Removing event_groups.o(i.xEventGroupWaitBits), (292 bytes).
    Removing queue.o(i.pcQueueGetName), (44 bytes).
    Removing queue.o(i.prvGetDisinheritPriorityAfterTimeout), (22 bytes).
    Removing queue.o(i.prvInitialiseMutex), (32 bytes).
    Removing queue.o(i.ucQueueGetQueueType), (8 bytes).
    Removing queue.o(i.uxQueueGetQueueNumber), (6 bytes).
    Removing queue.o(i.uxQueueMessagesWaiting), (28 bytes).
    Removing queue.o(i.uxQueueMessagesWaitingFromISR), (18 bytes).
    Removing queue.o(i.uxQueueSpacesAvailable), (34 bytes).
    Removing queue.o(i.vQueueDelete), (30 bytes).
    Removing queue.o(i.vQueueSetQueueNumber), (4 bytes).
    Removing queue.o(i.vQueueUnregisterQueue), (52 bytes).
    Removing queue.o(i.xQueueAddToSet), (42 bytes).
    Removing queue.o(i.xQueueCreateCountingSemaphore), (68 bytes).
    Removing queue.o(i.xQueueCreateMutex), (30 bytes).
    Removing queue.o(i.xQueueCreateSet), (20 bytes).
    Removing queue.o(i.xQueueGiveFromISR), (218 bytes).
    Removing queue.o(i.xQueueGiveMutexRecursive), (60 bytes).
    Removing queue.o(i.xQueueIsQueueEmptyFromISR), (28 bytes).
    Removing queue.o(i.xQueueIsQueueFullFromISR), (32 bytes).
    Removing queue.o(i.xQueuePeek), (316 bytes).
    Removing queue.o(i.xQueuePeekFromISR), (108 bytes).
    Removing queue.o(i.xQueueReceiveFromISR), (180 bytes).
    Removing queue.o(i.xQueueRemoveFromSet), (46 bytes).
    Removing queue.o(i.xQueueSelectFromSet), (24 bytes).
    Removing queue.o(i.xQueueSelectFromSetFromISR), (22 bytes).
    Removing queue.o(i.xQueueSemaphoreTake), (382 bytes).
    Removing queue.o(i.xQueueTakeMutexRecursive), (62 bytes).
    Removing stream_buffer.o(i.prvBytesInBuffer), (24 bytes).
    Removing stream_buffer.o(i.prvInitialiseNewStreamBuffer), (64 bytes).
    Removing stream_buffer.o(i.prvReadBytesFromBuffer), (162 bytes).
    Removing stream_buffer.o(i.prvReadMessageFromBuffer), (72 bytes).
    Removing stream_buffer.o(i.prvWriteBytesToBuffer), (140 bytes).
    Removing stream_buffer.o(i.prvWriteMessageToBuffer), (92 bytes).
    Removing stream_buffer.o(i.ucStreamBufferGetStreamBufferType), (10 bytes).
    Removing stream_buffer.o(i.uxStreamBufferGetStreamBufferNumber), (6 bytes).
    Removing stream_buffer.o(i.vStreamBufferDelete), (44 bytes).
    Removing stream_buffer.o(i.vStreamBufferSetStreamBufferNumber), (4 bytes).
    Removing stream_buffer.o(i.xStreamBufferBytesAvailable), (28 bytes).
    Removing stream_buffer.o(i.xStreamBufferGenericCreate), (132 bytes).
    Removing stream_buffer.o(i.xStreamBufferIsEmpty), (32 bytes).
    Removing stream_buffer.o(i.xStreamBufferIsFull), (52 bytes).
    Removing stream_buffer.o(i.xStreamBufferNextMessageLengthBytes), (92 bytes).
    Removing stream_buffer.o(i.xStreamBufferReceive), (218 bytes).
    Removing stream_buffer.o(i.xStreamBufferReceiveCompletedFromISR), (68 bytes).
    Removing stream_buffer.o(i.xStreamBufferReceiveFromISR), (134 bytes).
    Removing stream_buffer.o(i.xStreamBufferReset), (64 bytes).
    Removing stream_buffer.o(i.xStreamBufferSend), (294 bytes).
    Removing stream_buffer.o(i.xStreamBufferSendCompletedFromISR), (68 bytes).
    Removing stream_buffer.o(i.xStreamBufferSendFromISR), (142 bytes).
    Removing stream_buffer.o(i.xStreamBufferSetTriggerLevel), (38 bytes).
    Removing stream_buffer.o(i.xStreamBufferSpacesAvailable), (40 bytes).
    Removing tasks.o(i.pcTaskGetName), (36 bytes).
    Removing tasks.o(i.prvTaskIsTaskSuspended), (84 bytes).
    Removing tasks.o(i.pvTaskIncrementMutexHeldCount), (32 bytes).
    Removing tasks.o(i.ulTaskGenericNotifyTake), (144 bytes).
    Removing tasks.o(i.ulTaskGenericNotifyValueClear), (68 bytes).
    Removing tasks.o(i.uxTaskGetNumberOfTasks), (12 bytes).
    Removing tasks.o(i.uxTaskGetTaskNumber), (16 bytes).
    Removing tasks.o(i.uxTaskPriorityGet), (36 bytes).
    Removing tasks.o(i.uxTaskPriorityGetFromISR), (40 bytes).
    Removing tasks.o(i.uxTaskResetEventItemValue), (28 bytes).
    Removing tasks.o(i.vTaskDelete), (188 bytes).
    Removing tasks.o(i.vTaskEndScheduler), (20 bytes).
    Removing tasks.o(i.vTaskGenericNotifyGiveFromISR), (224 bytes).
    Removing tasks.o(i.vTaskPlaceOnUnorderedEventList), (84 bytes).
    Removing tasks.o(i.vTaskPriorityDisinheritAfterTimeout), (176 bytes).
    Removing tasks.o(i.vTaskPrioritySet), (228 bytes).
    Removing tasks.o(i.vTaskRemoveFromUnorderedEventList), (136 bytes).
    Removing tasks.o(i.vTaskResume), (116 bytes).
    Removing tasks.o(i.vTaskSetTaskNumber), (10 bytes).
    Removing tasks.o(i.vTaskSetTimeOutState), (44 bytes).
    Removing tasks.o(i.vTaskSuspend), (196 bytes).
    Removing tasks.o(i.xTaskCatchUpTicks), (60 bytes).
    Removing tasks.o(i.xTaskDelayUntil), (156 bytes).
    Removing tasks.o(i.xTaskGenericNotify), (308 bytes).
    Removing tasks.o(i.xTaskGenericNotifyFromISR), (360 bytes).
    Removing tasks.o(i.xTaskGenericNotifyStateClear), (80 bytes).
    Removing tasks.o(i.xTaskGenericNotifyWait), (172 bytes).
    Removing tasks.o(i.xTaskGetCurrentTaskHandle), (12 bytes).
    Removing tasks.o(i.xTaskGetTickCountFromISR), (12 bytes).
    Removing tasks.o(i.xTaskPriorityInherit), (164 bytes).
    Removing tasks.o(i.xTaskResumeFromISR), (148 bytes).
    Removing timers.o(i.pcTimerGetName), (18 bytes).
    Removing timers.o(i.prvInitialiseNewTimer), (78 bytes).
    Removing timers.o(i.pvTimerGetTimerID), (30 bytes).
    Removing timers.o(i.uxTimerGetReloadMode), (46 bytes).
    Removing timers.o(i.uxTimerGetTimerNumber), (6 bytes).
    Removing timers.o(i.vTimerSetReloadMode), (58 bytes).
    Removing timers.o(i.vTimerSetTimerID), (30 bytes).
    Removing timers.o(i.vTimerSetTimerNumber), (4 bytes).
    Removing timers.o(i.xTimerCreate), (50 bytes).
    Removing timers.o(i.xTimerGetExpiryTime), (18 bytes).
    Removing timers.o(i.xTimerGetPeriod), (18 bytes).
    Removing timers.o(i.xTimerGetTimerDaemonTaskHandle), (36 bytes).
    Removing timers.o(i.xTimerIsTimerActive), (46 bytes).
    Removing port.o(i.vPortEndScheduler), (36 bytes).
    Removing heap_4.o(i.vPortGetHeapStats), (128 bytes).
    Removing heap_4.o(i.vPortInitialiseBlocks), (2 bytes).
    Removing freertos_cli.o(i.FreeRTOS_CLIGetOutputBuffer), (8 bytes).
    Removing freertos_cli.o(i.FreeRTOS_CLIProcessCommand), (220 bytes).
    Removing freertos_cli.o(i.prvGetNumberOfParameters), (46 bytes).
    Removing freertos_cli.o(.bss), (512 bytes).
    Removing uartcommandconsole.o(i.prvUARTCommandConsoleTask), (352 bytes).
    Removing uartcommandconsole.o(i.vOutputString), (64 bytes).
    Removing uartcommandconsole.o(i.vUARTCommandConsoleStart), (64 bytes).
    Removing uartcommandconsole.o(.bss), (100 bytes).
    Removing uartcommandconsole.o(.constdata), (12 bytes).
    Removing uartcommandconsole.o(.conststring), (143 bytes).
    Removing uartcommandconsole.o(.data), (12 bytes).
    Removing serial.o(.rev16_text), (4 bytes).
    Removing serial.o(.revsh_text), (4 bytes).
    Removing serial.o(i.vSerialClose), (2 bytes).
    Removing serial.o(i.vSerialPutString), (34 bytes).
    Removing serial.o(i.vUARTInterruptHandler), (204 bytes).
    Removing serial.o(i.xSerialGetChar), (36 bytes).
    Removing serial.o(i.xSerialPortInitMinimal), (64 bytes).
    Removing serial.o(i.xSerialPutChar), (100 bytes).
    Removing serial.o(.data), (9 bytes).
    Removing qmi8658c_iic.o(.rev16_text), (4 bytes).
    Removing qmi8658c_iic.o(.revsh_text), (4 bytes).
    Removing qmi8658c_iic.o(i.u16Average), (210 bytes).
    Removing qmi8658c_iic.o(i.u16zero_check), (24 bytes).
    Removing qmi8658c_iic.o(i.vI2CQMI6858C_Init), (180 bytes).
    Removing qmi8658c_iic.o(i.vI2CQMI_GetData), (260 bytes).
    Removing qmi8658c_iic.o(i.vQMI_GetnData), (376 bytes).
    Removing qmi8658c_iic.o(.bss), (156 bytes).
    Removing qmi8658c_iic.o(.data), (14 bytes).
    Removing system_sc32f58128.o(.rev16_text), (4 bytes).
    Removing system_sc32f58128.o(.revsh_text), (4 bytes).
    Removing system_sc32f58128.o(i.DualCoreOff), (164 bytes).
    Removing system_sc32f58128.o(i.DualCoreOn), (192 bytes).
    Removing sc32f58128_sysclkcfg.o(.rev16_text), (4 bytes).
    Removing sc32f58128_sysclkcfg.o(.revsh_text), (4 bytes).
    Removing sc32f58128_sysclkcfg.o(i.mg_DisableRCH), (2 bytes).
    Removing sc32f58128_adc.o(.rev16_text), (4 bytes).
    Removing sc32f58128_adc.o(.revsh_text), (4 bytes).
    Removing sc32f58128_adc.o(i.AdcConfigExample), (200 bytes).
    Removing sc32f58128_adc.o(i.AdcInit), (452 bytes).
    Removing sc32f58128_adc.o(i.AdcInitRef), (492 bytes).
    Removing sc32f58128_adc.o(i.AdcInitial), (240 bytes).
    Removing sc32f58128_adc.o(i.AdcSocConfig), (524 bytes).
    Removing sc32f58128_adc.o(i.__get_PRIMASK), (6 bytes).
    Removing sc32f58128_adc.o(i.__set_PRIMASK), (6 bytes).
    Removing sc32f58128_adc.o(.data), (256 bytes).
    Removing sc32f58128_can.o(.rev16_text), (4 bytes).
    Removing sc32f58128_can.o(.revsh_text), (4 bytes).
    Removing sc32f58128_can.o(i.CAN_CancelTransmit), (12 bytes).
    Removing sc32f58128_can.o(i.CAN_ClearFlag), (72 bytes).
    Removing sc32f58128_can.o(i.CAN_ClearITPendingBit), (22 bytes).
    Removing sc32f58128_can.o(i.CAN_DMAAutoRrb), (34 bytes).
    Removing sc32f58128_can.o(i.CAN_DMAConfig), (30 bytes).
    Removing sc32f58128_can.o(i.CAN_DMARbselConfig), (24 bytes).
    Removing sc32f58128_can.o(i.CAN_DeInit), (12 bytes).
    Removing sc32f58128_can.o(i.CAN_FIFORelease), (12 bytes).
    Removing sc32f58128_can.o(i.CAN_FilterInit), (98 bytes).
    Removing sc32f58128_can.o(i.CAN_GetErrorBit), (12 bytes).
    Removing sc32f58128_can.o(i.CAN_GetErrorDir), (12 bytes).
    Removing sc32f58128_can.o(i.CAN_GetErrorType), (12 bytes).
    Removing sc32f58128_can.o(i.CAN_GetFlagStatus), (56 bytes).
    Removing sc32f58128_can.o(i.CAN_GetITStatus), (224 bytes).
    Removing sc32f58128_can.o(i.CAN_GetITStatusReg), (6 bytes).
    Removing sc32f58128_can.o(i.CAN_GetReceiveErrorCounter), (12 bytes).
    Removing sc32f58128_can.o(i.CAN_GetTransmitErrorCounter), (10 bytes).
    Removing sc32f58128_can.o(i.CAN_GetTxArbitrationBit), (12 bytes).
    Removing sc32f58128_can.o(i.CAN_ITConfig), (20 bytes).
    Removing sc32f58128_can.o(i.CAN_Init), (266 bytes).
    Removing sc32f58128_can.o(i.CAN_MessagePending), (12 bytes).
    Removing sc32f58128_can.o(i.CAN_Receive), (106 bytes).
    Removing sc32f58128_can.o(i.CAN_StructInit), (26 bytes).
    Removing sc32f58128_can.o(i.CAN_Transmit), (288 bytes).
    Removing sc32f58128_can.o(i.CAN_TransmitStatus), (128 bytes).
    Removing sc32f58128_can.o(i.CheckITStatus), (20 bytes).
    Removing sc32f58128_cmpss.o(.rev16_text), (4 bytes).
    Removing sc32f58128_cmpss.o(.revsh_text), (4 bytes).
    Removing sc32f58128_cmpss.o(i.CMPSS_CompInit), (304 bytes).
    Removing sc32f58128_cmpss.o(i.CMPSS_DACInit), (216 bytes).
    Removing sc32f58128_cmpss.o(i.CMPSS_DACOutEn), (112 bytes).
    Removing sc32f58128_cmpss.o(i.CMPSS_DACSetVal), (24 bytes).
    Removing sc32f58128_cmpss.o(i.CMPSS_FilterInit), (272 bytes).
    Removing sc32f58128_cmpss.o(i.CMPSS_FilterLatchClr), (140 bytes).
    Removing sc32f58128_cmpss.o(i.CMPSS_OutSigSel), (244 bytes).
    Removing sc32f58128_cmpss.o(i.CMPSS_RAMPInit), (108 bytes).
    Removing sc32f58128_cmpss.o(i.CMPSS_RAMPUpdate), (22 bytes).
    Removing sc32f58128_cmpss.o(i.CMPSS_RegisterLock), (80 bytes).
    Removing sc32f58128_cmpss.o(i.CMPSS_SyncClrEn), (156 bytes).
    Removing sc32f58128_cmpss.o(i.__get_PRIMASK), (6 bytes).
    Removing sc32f58128_cmpss.o(i.__set_PRIMASK), (6 bytes).
    Removing sc32f58128_dma.o(.bss), (192 bytes).
    Removing sc32f58128_gpio.o(.rev16_text), (4 bytes).
    Removing sc32f58128_gpio.o(.revsh_text), (4 bytes).
    Removing sc32f58128_gpio.o(i.GPIO_FiltConfig), (128 bytes).
    Removing sc32f58128_gpio.o(i.GPIO_GetGpioStatus), (46 bytes).
    Removing sc32f58128_gpio.o(i.GPIO_IntConfig), (162 bytes).
    Removing sc32f58128_gpio.o(i.GPIO_ModeSel), (120 bytes).
    Removing sc32f58128_gpio.o(i.GPIO_OpenDrainDisable), (116 bytes).
    Removing sc32f58128_gpio.o(i.GPIO_OutputHighCapabilityDisable), (116 bytes).
    Removing sc32f58128_gpio.o(i.GPIO_Toggle), (32 bytes).
    Removing sc32f58128_iap.o(.rev16_text), (4 bytes).
    Removing sc32f58128_iap.o(.revsh_text), (4 bytes).
    Removing sc32f58128_iap.o(i.EraseEEPROMSector), (16 bytes).
    Removing sc32f58128_iap.o(i.Erase_Mass), (188 bytes).
    Removing sc32f58128_iap.o(i.Erase_Sector), (196 bytes).
    Removing sc32f58128_iap.o(i.IAP_init), (12 bytes).
    Removing sc32f58128_iap.o(i.InitEEPROM), (48 bytes).
    Removing sc32f58128_iap.o(i.Key_Match), (132 bytes).
    Removing sc32f58128_iap.o(i.NVR_Erase), (204 bytes).
    Removing sc32f58128_iap.o(i.NVR_Erase_SZ), (48 bytes).
    Removing sc32f58128_iap.o(i.NVR_Erase_Sector), (200 bytes).
    Removing sc32f58128_iap.o(i.NVR_ProgramPage), (268 bytes).
    Removing sc32f58128_iap.o(i.NVR_ReadPage), (312 bytes).
    Removing sc32f58128_iap.o(i.ProgramPage), (252 bytes).
    Removing sc32f58128_iap.o(i.ProgramPageByte), (276 bytes).
    Removing sc32f58128_iap.o(i.ReadByteEEPROM), (32 bytes).
    Removing sc32f58128_iap.o(i.ReadPage), (300 bytes).
    Removing sc32f58128_iap.o(i.WriteByteEEPROM), (42 bytes).
    Removing sc32f58128_iap.o(i.WritePageEEPROM), (48 bytes).
    Removing sc32f58128_iap.o(i.__get_PRIMASK), (6 bytes).
    Removing sc32f58128_iap.o(i.__set_PRIMASK), (6 bytes).
    Removing sc32f58128_iap.o(.bss), (20 bytes).
    Removing sc32f58128_iic.o(.rev16_text), (4 bytes).
    Removing sc32f58128_iic.o(.revsh_text), (4 bytes).
    Removing sc32f58128_iic.o(i.I2C_Init), (32 bytes).
    Removing sc32f58128_iic.o(i.I2C_SetCR), (20 bytes).
    Removing sc32f58128_iic.o(i.IIC_SendByte), (24 bytes).
    Removing sc32f58128_iic.o(i.IIC_SendSla), (28 bytes).
    Removing sc32f58128_iic.o(i.IIC_SetAddr), (28 bytes).
    Removing sc32f58128_pwm.o(.rev16_text), (4 bytes).
    Removing sc32f58128_pwm.o(.revsh_text), (4 bytes).
    Removing sc32f58128_pwm.o(i.PwmConfigExample), (628 bytes).
    Removing sc32f58128_pwm.o(i.__get_PRIMASK), (6 bytes).
    Removing sc32f58128_pwm.o(i.__set_PRIMASK), (6 bytes).
    Removing sc32f58128_qep.o(.rev16_text), (4 bytes).
    Removing sc32f58128_qep.o(.revsh_text), (4 bytes).
    Removing sc32f58128_qep.o(i.HalfAdjust), (28 bytes).
    Removing sc32f58128_qep.o(i.QepCfgInit), (372 bytes).
    Removing sc32f58128_qep.o(i.QepForSpeedPosInit), (68 bytes).
    Removing sc32f58128_qep.o(i.SpeedPositonInit), (188 bytes).
    Removing sc32f58128_qep.o(.bss), (72 bytes).
    Removing sc32f58128_qep.o(.data), (56 bytes).
    Removing sc32f58128_spi.o(.rev16_text), (4 bytes).
    Removing sc32f58128_spi.o(.revsh_text), (4 bytes).
    Removing sc32f58128_spi.o(i.SPI_ClearERRFlag), (8 bytes).
    Removing sc32f58128_spi.o(i.SPI_DMACmd), (22 bytes).
    Removing sc32f58128_spi.o(i.SPI_DataSizeConfig), (16 bytes).
    Removing sc32f58128_spi.o(i.SPI_GetINTRawStatus), (20 bytes).
    Removing sc32f58128_spi.o(i.SPI_GetINTStatus), (34 bytes).
    Removing sc32f58128_spi.o(i.SPI_INTConfig), (26 bytes).
    Removing sc32f58128_spi.o(i.SPI_SlaveOutputBlockCmd), (26 bytes).
    Removing sc32f58128_spi.o(i.SPI_StructInit), (32 bytes).
    Removing sc32f58128_timer.o(.rev16_text), (4 bytes).
    Removing sc32f58128_timer.o(.revsh_text), (4 bytes).
    Removing sc32f58128_uart.o(.rev16_text), (4 bytes).
    Removing sc32f58128_uart.o(.revsh_text), (4 bytes).
    Removing sc32f58128_uart.o(i.UartInit), (484 bytes).
    Removing sc32f58128_uart.o(.data), (12 bytes).
    Removing sc32f58128_wdt.o(.rev16_text), (4 bytes).
    Removing sc32f58128_wdt.o(.revsh_text), (4 bytes).
    Removing sc32f58128_wdt.o(i.WDT_Disable), (6 bytes).
    Removing sc32f58128_wdt.o(i.WDT_Enable), (6 bytes).
    Removing sc32f58128_wdt.o(i.WDT_EnableInterAndCount), (12 bytes).
    Removing sc32f58128_wdt.o(i.WDT_EnableReset), (12 bytes).
    Removing sc32f58128_wdt.o(i.WDT_GetCount), (6 bytes).
    Removing sc32f58128_wdt.o(i.WDT_Init), (92 bytes).
    Removing sc32f58128_wdt.o(i.WDT_KickDog), (6 bytes).
    Removing sc32f58128_wdt.o(i.WDT_SetReload), (4 bytes).
    Removing sc32f58128_wdt.o(i.WDT_WriteAccessCmd), (10 bytes).
    Removing dbgtool.o(.rev16_text), (4 bytes).
    Removing dbgtool.o(.revsh_text), (4 bytes).
    Removing dbgtool.o(i.DBG_ParaCmdDataRw), (68 bytes).
    Removing dbgtool.o(i.DBG_ParamInit), (64 bytes).
    Removing dbgtool.o(i.DBG_ReadWaveData), (108 bytes).
    Removing dbgtool.o(i.DBG_Ro), (248 bytes).
    Removing dbgtool.o(i.DBG_Rw), (236 bytes).
    Removing dbgtool.o(i.DBG_RxPackageDeal), (156 bytes).
    Removing dbgtool.o(i.DBG_SetRxData), (128 bytes).
    Removing dbgtool.o(i.DBG_SetTxData), (96 bytes).
    Removing dbgtool.o(i.DBG_SetTxLiveData), (184 bytes).
    Removing dbgtool.o(i.DBG_SetTxStartData), (36 bytes).
    Removing dbgtool.o(i.DBG_TestCode), (96 bytes).
    Removing dbgtool.o(i.DBG_TxData), (68 bytes).
    Removing dbgtool.o(i.DBG_WaveCmdDataRw), (68 bytes).
    Removing dbgtool.o(i.DBG_WaveCmdStatusRw), (76 bytes).
    Removing dbgtool.o(i.DBG_WaveTrigRw), (48 bytes).
    Removing dbgtool.o(i.mg_DataTrans), (24 bytes).
    Removing dbgtool.o(i.mg_GetParaData), (80 bytes).
    Removing dbgtool.o(i.mg_GetRxData), (80 bytes).
    Removing dbgtool.o(i.mg_ParamInit), (112 bytes).
    Removing dbgtool.o(i.mg_SetCrc), (50 bytes).
    Removing dbgtool.o(i.mg_SetParaAdd), (36 bytes).
    Removing dbgtool.o(i.mg_SetParaData), (88 bytes).
    Removing dbgtool.o(i.mg_TxDataArray), (30 bytes).
    Removing dbgtool.o(.bss), (596 bytes).
    Removing dbgtool.o(.bss), (28 bytes).
    Removing dbgtool.o(.data), (32 bytes).
    Removing dbgtool.o(.data), (1 bytes).
    Removing dbgtool.o(.data), (4 bytes).
    Removing dbgcmd.o(i.CMD_CmdProcess), (160 bytes).
    Removing dbgcmd.o(.data), (1 bytes).
    Removing dbgcmd.o(.data), (4 bytes).
    Removing dbgcmd.o(.data), (52 bytes).
    Removing dbgcmd.o(.data), (4 bytes).
    Removing dbgcmd.o(.data), (1 bytes).
    Removing dbgcmd.o(.data), (1 bytes).
    Removing dbgcmd.o(.data), (2 bytes).
    Removing dbgcmd.o(.data), (2 bytes).
    Removing dbgcmd.o(.data), (4 bytes).
    Removing dbgcmd.o(.data), (4 bytes).
    Removing dbgcmd.o(.data), (4 bytes).
    Removing dbgcmd.o(.data), (4 bytes).
    Removing dbgcmd.o(.data), (4 bytes).
    Removing dbgcmd.o(.data), (3 bytes).
    Removing dbgcmd.o(.data), (4 bytes).
    Removing wavesmp.o(i.WAVE_FillWaveBuff), (32 bytes).
    Removing wavesmp.o(i.WAVE_GetCmdData), (44 bytes).
    Removing wavesmp.o(i.WAVE_GetWaveData), (180 bytes).
    Removing wavesmp.o(i.WAVE_Init), (112 bytes).
    Removing wavesmp.o(i.WAVE_InitSmpRate4SeqSmp), (52 bytes).
    Removing wavesmp.o(i.WAVE_ResetWaveParam), (40 bytes).
    Removing wavesmp.o(i.WAVE_SetCmdData), (28 bytes).
    Removing wavesmp.o(i.WAVE_SetSmpData2WaveBuff), (484 bytes).
    Removing wavesmp.o(i.WAVE_SetWaveBufSize), (324 bytes).
    Removing wavesmp.o(i.mg_FillLiveData), (304 bytes).
    Removing wavesmp.o(.bss), (2100 bytes).
    Removing wavesmp.o(.data), (28 bytes).
    Removing wavesmp.o(.data), (1 bytes).
    Removing wavesmp.o(.data), (2 bytes).
    Removing wavesmp.o(.data), (4 bytes).
    Removing wavesmp.o(.data), (4 bytes).
    Removing wavesmp.o(.data), (2 bytes).
    Removing wavesmp.o(.data), (4 bytes).
    Removing bsp_gpio.o(i.silan_mult_IQxmpy), (176 bytes).

405 unused section(s) (total 34574 bytes) removed from the image.

==============================================================================

Image Symbol Table

    Local Symbols

    Symbol Name                              Value     Ov Type        Size  Object(Section)

    RESET                                    0x00000000   Section      192  startup_sc32f58128.o(RESET)
    ../clib/../cmprslib/zerorunl2.c          0x00000000   Number         0  __dczerorl2.o ABSOLUTE
    ../clib/angel/boardlib.s                 0x00000000   Number         0  boardinit2.o ABSOLUTE
    ../clib/angel/boardlib.s                 0x00000000   Number         0  boardinit3.o ABSOLUTE
    ../clib/angel/boardlib.s                 0x00000000   Number         0  boardinit1.o ABSOLUTE
    ../clib/angel/boardlib.s                 0x00000000   Number         0  boardshut.o ABSOLUTE
    ../clib/angel/handlers.s                 0x00000000   Number         0  __scatter_zi.o ABSOLUTE
    ../clib/angel/kernel.s                   0x00000000   Number         0  __rtentry.o ABSOLUTE
    ../clib/angel/kernel.s                   0x00000000   Number         0  rtexit.o ABSOLUTE
    ../clib/angel/kernel.s                   0x00000000   Number         0  __rtentry4.o ABSOLUTE
    ../clib/angel/kernel.s                   0x00000000   Number         0  rtexit2.o ABSOLUTE
    ../clib/angel/kernel.s                   0x00000000   Number         0  __rtentry2.o ABSOLUTE
    ../clib/angel/rt.s                       0x00000000   Number         0  aeabi_ldiv0_sigfpe.o ABSOLUTE
    ../clib/angel/rt.s                       0x00000000   Number         0  aeabi_ldiv0.o ABSOLUTE
    ../clib/angel/rt.s                       0x00000000   Number         0  aeabi_idiv0_sigfpe.o ABSOLUTE
    ../clib/angel/rt.s                       0x00000000   Number         0  aeabi_idiv0.o ABSOLUTE
    ../clib/angel/rt.s                       0x00000000   Number         0  rt_div0.o ABSOLUTE
    ../clib/angel/rt.s                       0x00000000   Number         0  rt_raise.o ABSOLUTE
    ../clib/angel/scatterp.s                 0x00000000   Number         0  __scatter.o ABSOLUTE
    ../clib/angel/startup.s                  0x00000000   Number         0  __main.o ABSOLUTE
    ../clib/angel/sys.s                      0x00000000   Number         0  sys_stackheap_outer.o ABSOLUTE
    ../clib/angel/sys.s                      0x00000000   Number         0  libspace.o ABSOLUTE
    ../clib/angel/sys.s                      0x00000000   Number         0  indicate_semi.o ABSOLUTE
    ../clib/angel/sys.s                      0x00000000   Number         0  use_no_semi.o ABSOLUTE
    ../clib/angel/sys.s                      0x00000000   Number         0  tempstk.o ABSOLUTE
    ../clib/angel/sysapp.c                   0x00000000   Number         0  sys_exit.o ABSOLUTE
    ../clib/angel/sysapp.c                   0x00000000   Number         0  sys_wrch.o ABSOLUTE
    ../clib/angel/sysapp.c                   0x00000000   Number         0  sys_command.o ABSOLUTE
    ../clib/armsys.c                         0x00000000   Number         0  argv_veneer.o ABSOLUTE
    ../clib/armsys.c                         0x00000000   Number         0  no_argv.o ABSOLUTE
    ../clib/armsys.c                         0x00000000   Number         0  _get_argv_nomalloc.o ABSOLUTE
    ../clib/division.c                       0x00000000   Number         0  rtudiv10.o ABSOLUTE
    ../clib/division.c                       0x00000000   Number         0  llsdiv.o ABSOLUTE
    ../clib/division.c                       0x00000000   Number         0  lludiv.o ABSOLUTE
    ../clib/division.s                       0x00000000   Number         0  aeabi_sdiv_div0.o ABSOLUTE
    ../clib/division.s                       0x00000000   Number         0  aeabi_sdiv.o ABSOLUTE
    ../clib/heapalloc.c                      0x00000000   Number         0  hrguard.o ABSOLUTE
    ../clib/heapaux.c                        0x00000000   Number         0  heapauxi.o ABSOLUTE
    ../clib/libinit.s                        0x00000000   Number         0  libshutdown2.o ABSOLUTE
    ../clib/libinit.s                        0x00000000   Number         0  libshutdown.o ABSOLUTE
    ../clib/libinit.s                        0x00000000   Number         0  libinit.o ABSOLUTE
    ../clib/libinit.s                        0x00000000   Number         0  libinit2.o ABSOLUTE
    ../clib/longlong.c                       0x00000000   Number         0  llshl.o ABSOLUTE
    ../clib/longlong.c                       0x00000000   Number         0  llmul.o ABSOLUTE
    ../clib/memcpset.c                       0x00000000   Number         0  rt_memcpy.o ABSOLUTE
    ../clib/memcpset.c                       0x00000000   Number         0  aeabi_memset.o ABSOLUTE
    ../clib/memcpset.c                       0x00000000   Number         0  rt_memcpy.o ABSOLUTE
    ../clib/memcpset.c                       0x00000000   Number         0  memset.o ABSOLUTE
    ../clib/memcpset.c                       0x00000000   Number         0  rt_memclr.o ABSOLUTE
    ../clib/printf.c                         0x00000000   Number         0  __printf_ss.o ABSOLUTE
    ../clib/printf.c                         0x00000000   Number         0  __printf_flags.o ABSOLUTE
    ../clib/printf.c                         0x00000000   Number         0  _printf_dec.o ABSOLUTE
    ../clib/printf.c                         0x00000000   Number         0  _printf_char.o ABSOLUTE
    ../clib/printf.c                         0x00000000   Number         0  __printf_flags_ss_wp.o ABSOLUTE
    ../clib/printf.c                         0x00000000   Number         0  __2sprintf.o ABSOLUTE
    ../clib/printf.c                         0x00000000   Number         0  _printf_intcommon.o ABSOLUTE
    ../clib/printf.c                         0x00000000   Number         0  __printf_nopercent.o ABSOLUTE
    ../clib/printf.c                         0x00000000   Number         0  noretval__2sprintf.o ABSOLUTE
    ../clib/printf.c                         0x00000000   Number         0  _printf_str.o ABSOLUTE
    ../clib/printf.c                         0x00000000   Number         0  __printf_flags_ss.o ABSOLUTE
    ../clib/printf.c                         0x00000000   Number         0  _printf_char_common.o ABSOLUTE
    ../clib/printf.c                         0x00000000   Number         0  __printf_ss_wp.o ABSOLUTE
    ../clib/printf.c                         0x00000000   Number         0  _sputc.o ABSOLUTE
    ../clib/printf.c                         0x00000000   Number         0  __printf_flags_wp.o ABSOLUTE
    ../clib/printf.c                         0x00000000   Number         0  __printf.o ABSOLUTE
    ../clib/printf.c                         0x00000000   Number         0  __printf_wp.o ABSOLUTE
    ../clib/printf_percent.s                 0x00000000   Number         0  _printf_percent_end.o ABSOLUTE
    ../clib/printf_percent.s                 0x00000000   Number         0  _printf_u.o ABSOLUTE
    ../clib/printf_percent.s                 0x00000000   Number         0  _printf_percent.o ABSOLUTE
    ../clib/printf_percent.s                 0x00000000   Number         0  _printf_d.o ABSOLUTE
    ../clib/printf_percent.s                 0x00000000   Number         0  _printf_c.o ABSOLUTE
    ../clib/signal.c                         0x00000000   Number         0  defsig_cppl_inner.o ABSOLUTE
    ../clib/signal.c                         0x00000000   Number         0  defsig_pvfn_inner.o ABSOLUTE
    ../clib/signal.c                         0x00000000   Number         0  defsig_stak_inner.o ABSOLUTE
    ../clib/signal.c                         0x00000000   Number         0  defsig_rtmem_formal.o ABSOLUTE
    ../clib/signal.c                         0x00000000   Number         0  defsig_rtmem_inner.o ABSOLUTE
    ../clib/signal.c                         0x00000000   Number         0  defsig_rtred_inner.o ABSOLUTE
    ../clib/signal.c                         0x00000000   Number         0  defsig_abrt_inner.o ABSOLUTE
    ../clib/signal.c                         0x00000000   Number         0  __raise.o ABSOLUTE
    ../clib/signal.c                         0x00000000   Number         0  defsig_exit.o ABSOLUTE
    ../clib/signal.c                         0x00000000   Number         0  defsig_fpe_formal.o ABSOLUTE
    ../clib/signal.c                         0x00000000   Number         0  defsig_rtmem_outer.o ABSOLUTE
    ../clib/signal.c                         0x00000000   Number         0  defsig_fpe_outer.o ABSOLUTE
    ../clib/signal.c                         0x00000000   Number         0  defsig_general.o ABSOLUTE
    ../clib/signal.c                         0x00000000   Number         0  defsig_fpe_inner.o ABSOLUTE
    ../clib/signal.c                         0x00000000   Number         0  defsig_other.o ABSOLUTE
    ../clib/signal.c                         0x00000000   Number         0  defsig_segv_inner.o ABSOLUTE
    ../clib/signal.s                         0x00000000   Number         0  defsig.o ABSOLUTE
    ../clib/stdlib.c                         0x00000000   Number         0  exit.o ABSOLUTE
    ../clib/string.c                         0x00000000   Number         0  strncpy.o ABSOLUTE
    ../clib/string.c                         0x00000000   Number         0  strcpy.o ABSOLUTE
    ../clib/string.c                         0x00000000   Number         0  strlen.o ABSOLUTE
    ../clib/string.c                         0x00000000   Number         0  strncmp.o ABSOLUTE
    ../clib/string.c                         0x00000000   Number         0  strncat.o ABSOLUTE
    ../fplib/cfplib/fdiv.c                   0x00000000   Number         0  fdiv.o ABSOLUTE
    ../fplib/cfplib/ffix.c                   0x00000000   Number         0  ffixul.o ABSOLUTE
    ../fplib/cfplib/fflt.c                   0x00000000   Number         0  ffltl.o ABSOLUTE
    ../fplib/cfplib/fflt.c                   0x00000000   Number         0  fflti.o ABSOLUTE
    ../fplib/cfplib/fpinit.c                 0x00000000   Number         0  fpinit.o ABSOLUTE
    ../fplib/fmul6m.s                        0x00000000   Number         0  fmul.o ABSOLUTE
    ../fplib/usenofp.s                       0x00000000   Number         0  usenofp.o ABSOLUTE
    C:\Keil_v5\ARM\PACK\Keil\SC32F58xx_DFP\1.3.1\Device\Source\ARM\startup_SC32F58128.s 0x00000000   Number         0  startup_sc32f58128.o ABSOLUTE
    C:\Keil_v5\ARM\PACK\Keil\SC32F58xx_DFP\1.3.1\Device\Source\system_SC32F58128.c 0x00000000   Number         0  system_sc32f58128.o ABSOLUTE
    C:\Keil_v5\ARM\PACK\Keil\SC32F58xx_DFP\1.3.1\Driver\source\SC32F58128_SysClkCfg.c 0x00000000   Number         0  sc32f58128_sysclkcfg.o ABSOLUTE
    C:\Keil_v5\ARM\PACK\Keil\SC32F58xx_DFP\1.3.1\Driver\source\SC32F58128_adc.c 0x00000000   Number         0  sc32f58128_adc.o ABSOLUTE
    C:\Keil_v5\ARM\PACK\Keil\SC32F58xx_DFP\1.3.1\Driver\source\SC32F58128_can.c 0x00000000   Number         0  sc32f58128_can.o ABSOLUTE
    C:\Keil_v5\ARM\PACK\Keil\SC32F58xx_DFP\1.3.1\Driver\source\SC32F58128_cmpss.c 0x00000000   Number         0  sc32f58128_cmpss.o ABSOLUTE
    C:\Keil_v5\ARM\PACK\Keil\SC32F58xx_DFP\1.3.1\Driver\source\SC32F58128_dma.c 0x00000000   Number         0  sc32f58128_dma.o ABSOLUTE
    C:\Keil_v5\ARM\PACK\Keil\SC32F58xx_DFP\1.3.1\Driver\source\SC32F58128_gpio.c 0x00000000   Number         0  sc32f58128_gpio.o ABSOLUTE
    C:\Keil_v5\ARM\PACK\Keil\SC32F58xx_DFP\1.3.1\Driver\source\SC32F58128_iap.c 0x00000000   Number         0  sc32f58128_iap.o ABSOLUTE
    C:\Keil_v5\ARM\PACK\Keil\SC32F58xx_DFP\1.3.1\Driver\source\SC32F58128_iic.c 0x00000000   Number         0  sc32f58128_iic.o ABSOLUTE
    C:\Keil_v5\ARM\PACK\Keil\SC32F58xx_DFP\1.3.1\Driver\source\SC32F58128_pwm.c 0x00000000   Number         0  sc32f58128_pwm.o ABSOLUTE
    C:\Keil_v5\ARM\PACK\Keil\SC32F58xx_DFP\1.3.1\Driver\source\SC32F58128_qep.c 0x00000000   Number         0  sc32f58128_qep.o ABSOLUTE
    C:\Keil_v5\ARM\PACK\Keil\SC32F58xx_DFP\1.3.1\Driver\source\SC32F58128_spi.c 0x00000000   Number         0  sc32f58128_spi.o ABSOLUTE
    C:\Keil_v5\ARM\PACK\Keil\SC32F58xx_DFP\1.3.1\Driver\source\SC32F58128_timer.c 0x00000000   Number         0  sc32f58128_timer.o ABSOLUTE
    C:\Keil_v5\ARM\PACK\Keil\SC32F58xx_DFP\1.3.1\Driver\source\SC32F58128_uart.c 0x00000000   Number         0  sc32f58128_uart.o ABSOLUTE
    C:\Keil_v5\ARM\PACK\Keil\SC32F58xx_DFP\1.3.1\Driver\source\SC32F58128_wdt.c 0x00000000   Number         0  sc32f58128_wdt.o ABSOLUTE
    C:\\Keil_v5\\ARM\\PACK\\Keil\\SC32F58xx_DFP\\1.3.1\\Device\\Source\\system_SC32F58128.c 0x00000000   Number         0  system_sc32f58128.o ABSOLUTE
    C:\\Keil_v5\\ARM\\PACK\\Keil\\SC32F58xx_DFP\\1.3.1\\Driver\\source\\SC32F58128_SysClkCfg.c 0x00000000   Number         0  sc32f58128_sysclkcfg.o ABSOLUTE
    C:\\Keil_v5\\ARM\\PACK\\Keil\\SC32F58xx_DFP\\1.3.1\\Driver\\source\\SC32F58128_adc.c 0x00000000   Number         0  sc32f58128_adc.o ABSOLUTE
    C:\\Keil_v5\\ARM\\PACK\\Keil\\SC32F58xx_DFP\\1.3.1\\Driver\\source\\SC32F58128_can.c 0x00000000   Number         0  sc32f58128_can.o ABSOLUTE
    C:\\Keil_v5\\ARM\\PACK\\Keil\\SC32F58xx_DFP\\1.3.1\\Driver\\source\\SC32F58128_cmpss.c 0x00000000   Number         0  sc32f58128_cmpss.o ABSOLUTE
    C:\\Keil_v5\\ARM\\PACK\\Keil\\SC32F58xx_DFP\\1.3.1\\Driver\\source\\SC32F58128_gpio.c 0x00000000   Number         0  sc32f58128_gpio.o ABSOLUTE
    C:\\Keil_v5\\ARM\\PACK\\Keil\\SC32F58xx_DFP\\1.3.1\\Driver\\source\\SC32F58128_iap.c 0x00000000   Number         0  sc32f58128_iap.o ABSOLUTE
    C:\\Keil_v5\\ARM\\PACK\\Keil\\SC32F58xx_DFP\\1.3.1\\Driver\\source\\SC32F58128_iic.c 0x00000000   Number         0  sc32f58128_iic.o ABSOLUTE
    C:\\Keil_v5\\ARM\\PACK\\Keil\\SC32F58xx_DFP\\1.3.1\\Driver\\source\\SC32F58128_pwm.c 0x00000000   Number         0  sc32f58128_pwm.o ABSOLUTE
    C:\\Keil_v5\\ARM\\PACK\\Keil\\SC32F58xx_DFP\\1.3.1\\Driver\\source\\SC32F58128_qep.c 0x00000000   Number         0  sc32f58128_qep.o ABSOLUTE
    C:\\Keil_v5\\ARM\\PACK\\Keil\\SC32F58xx_DFP\\1.3.1\\Driver\\source\\SC32F58128_spi.c 0x00000000   Number         0  sc32f58128_spi.o ABSOLUTE
    C:\\Keil_v5\\ARM\\PACK\\Keil\\SC32F58xx_DFP\\1.3.1\\Driver\\source\\SC32F58128_timer.c 0x00000000   Number         0  sc32f58128_timer.o ABSOLUTE
    C:\\Keil_v5\\ARM\\PACK\\Keil\\SC32F58xx_DFP\\1.3.1\\Driver\\source\\SC32F58128_uart.c 0x00000000   Number         0  sc32f58128_uart.o ABSOLUTE
    C:\\Keil_v5\\ARM\\PACK\\Keil\\SC32F58xx_DFP\\1.3.1\\Driver\\source\\SC32F58128_wdt.c 0x00000000   Number         0  sc32f58128_wdt.o ABSOLUTE
    HARDWARE\QMI8658C\QMI8658C_IIC.c         0x00000000   Number         0  qmi8658c_iic.o ABSOLUTE
    HARDWARE\\QMI8658C\\QMI8658C_IIC.c       0x00000000   Number         0  qmi8658c_iic.o ABSOLUTE
    dc.s                                     0x00000000   Number         0  dc.o ABSOLUTE
    source\FreeRTOS-Kernel\croutine.c        0x00000000   Number         0  croutine.o ABSOLUTE
    source\FreeRTOS-Kernel\event_groups.c    0x00000000   Number         0  event_groups.o ABSOLUTE
    source\FreeRTOS-Kernel\list.c            0x00000000   Number         0  list.o ABSOLUTE
    source\FreeRTOS-Kernel\portable\MemMang\heap_4.c 0x00000000   Number         0  heap_4.o ABSOLUTE
    source\FreeRTOS-Kernel\portable\RVDS\ARM_CM0\port.c 0x00000000   Number         0  port.o ABSOLUTE
    source\FreeRTOS-Kernel\queue.c           0x00000000   Number         0  queue.o ABSOLUTE
    source\FreeRTOS-Kernel\stream_buffer.c   0x00000000   Number         0  stream_buffer.o ABSOLUTE
    source\FreeRTOS-Kernel\tasks.c           0x00000000   Number         0  tasks.o ABSOLUTE
    source\FreeRTOS-Kernel\timers.c          0x00000000   Number         0  timers.o ABSOLUTE
    source\FreeRTOS-Plus-CLI\FreeRTOS_CLI.c  0x00000000   Number         0  freertos_cli.o ABSOLUTE
    source\FreeRTOS-Plus-CLI\Sample-CLI-commands.c 0x00000000   Number         0  sample-cli-commands.o ABSOLUTE
    source\FreeRTOS-Plus-CLI\UARTCommandConsole.c 0x00000000   Number         0  uartcommandconsole.o ABSOLUTE
    source\FreeRTOS-Plus-CLI\serial.c        0x00000000   Number         0  serial.o ABSOLUTE
    source\User\SL_main.c                    0x00000000   Number         0  sl_main.o ABSOLUTE
    source\User\SL_niv.c                     0x00000000   Number         0  sl_niv.o ABSOLUTE
    source\User\UserTASK.c                   0x00000000   Number         0  usertask.o ABSOLUTE
    source\\FreeRTOS-Kernel\\portable\\RVDS\\ARM_CM0\\port.c 0x00000000   Number         0  port.o ABSOLUTE
    source\\FreeRTOS-Plus-CLI\\serial.c      0x00000000   Number         0  serial.o ABSOLUTE
    source\\User\\SL_main.c                  0x00000000   Number         0  sl_main.o ABSOLUTE
    source\\User\\SL_niv.c                   0x00000000   Number         0  sl_niv.o ABSOLUTE
    source\\User\\UserTASK.c                 0x00000000   Number         0  usertask.o ABSOLUTE
    source\\drive\\BSP\\BSP_adc.c            0x00000000   Number         0  bsp_adc.o ABSOLUTE
    source\\drive\\BSP\\BSP_dma.c            0x00000000   Number         0  bsp_dma.o ABSOLUTE
    source\\drive\\BSP\\BSP_gpio.c           0x00000000   Number         0  bsp_gpio.o ABSOLUTE
    source\\drive\\BSP\\BSP_iic.c            0x00000000   Number         0  bsp_iic.o ABSOLUTE
    source\\drive\\BSP\\BSP_pwm.c            0x00000000   Number         0  bsp_pwm.o ABSOLUTE
    source\\drive\\BSP\\BSP_spi.c            0x00000000   Number         0  bsp_spi.o ABSOLUTE
    source\\drive\\BSP\\BSP_uart.c           0x00000000   Number         0  bsp_uart.o ABSOLUTE
    source\\drive\\BSP\\devInit.c            0x00000000   Number         0  devinit.o ABSOLUTE
    source\\drive\\HAL\\dbgTool.c            0x00000000   Number         0  dbgtool.o ABSOLUTE
    source\drive\BSP\BSP_adc.c               0x00000000   Number         0  bsp_adc.o ABSOLUTE
    source\drive\BSP\BSP_dma.c               0x00000000   Number         0  bsp_dma.o ABSOLUTE
    source\drive\BSP\BSP_gpio.c              0x00000000   Number         0  bsp_gpio.o ABSOLUTE
    source\drive\BSP\BSP_iic.c               0x00000000   Number         0  bsp_iic.o ABSOLUTE
    source\drive\BSP\BSP_pwm.c               0x00000000   Number         0  bsp_pwm.o ABSOLUTE
    source\drive\BSP\BSP_spi.c               0x00000000   Number         0  bsp_spi.o ABSOLUTE
    source\drive\BSP\BSP_uart.c              0x00000000   Number         0  bsp_uart.o ABSOLUTE
    source\drive\BSP\devInit.c               0x00000000   Number         0  devinit.o ABSOLUTE
    source\drive\HAL\dbgCmd.c                0x00000000   Number         0  dbgcmd.o ABSOLUTE
    source\drive\HAL\dbgTool.c               0x00000000   Number         0  dbgtool.o ABSOLUTE
    source\drive\HAL\timer4Tick.c            0x00000000   Number         0  timer4tick.o ABSOLUTE
    source\drive\HAL\waveSmp.c               0x00000000   Number         0  wavesmp.o ABSOLUTE
    !!!main                                  0x000000c0   Section        8  __main.o(!!!main)
    !!!scatter                               0x000000c8   Section       60  __scatter.o(!!!scatter)
    !!handler_zi                             0x00000104   Section       28  __scatter_zi.o(!!handler_zi)
    .ARM.Collect$$_printf_percent$$00000000  0x00000120   Section        2  _printf_percent.o(.ARM.Collect$$_printf_percent$$00000000)
    .ARM.Collect$$_printf_percent$$00000009  0x00000122   Section       10  _printf_d.o(.ARM.Collect$$_printf_percent$$00000009)
    .ARM.Collect$$_printf_percent$$0000000A  0x0000012c   Section       10  _printf_u.o(.ARM.Collect$$_printf_percent$$0000000A)
    .ARM.Collect$$_printf_percent$$00000013  0x00000136   Section       10  _printf_c.o(.ARM.Collect$$_printf_percent$$00000013)
    .ARM.Collect$$_printf_percent$$00000017  0x00000140   Section        4  _printf_percent_end.o(.ARM.Collect$$_printf_percent$$00000017)
    .ARM.Collect$$libinit$$00000000          0x00000144   Section        2  libinit.o(.ARM.Collect$$libinit$$00000000)
    .ARM.Collect$$libinit$$00000002          0x00000146   Section        0  libinit2.o(.ARM.Collect$$libinit$$00000002)
    .ARM.Collect$$libinit$$00000004          0x00000146   Section        0  libinit2.o(.ARM.Collect$$libinit$$00000004)
    .ARM.Collect$$libinit$$0000000A          0x00000146   Section        0  libinit2.o(.ARM.Collect$$libinit$$0000000A)
    .ARM.Collect$$libinit$$0000000C          0x00000146   Section        0  libinit2.o(.ARM.Collect$$libinit$$0000000C)
    .ARM.Collect$$libinit$$0000000E          0x00000146   Section        0  libinit2.o(.ARM.Collect$$libinit$$0000000E)
    .ARM.Collect$$libinit$$00000011          0x00000146   Section        0  libinit2.o(.ARM.Collect$$libinit$$00000011)
    .ARM.Collect$$libinit$$00000013          0x00000146   Section        0  libinit2.o(.ARM.Collect$$libinit$$00000013)
    .ARM.Collect$$libinit$$00000015          0x00000146   Section        0  libinit2.o(.ARM.Collect$$libinit$$00000015)
    .ARM.Collect$$libinit$$00000017          0x00000146   Section        0  libinit2.o(.ARM.Collect$$libinit$$00000017)
    .ARM.Collect$$libinit$$00000019          0x00000146   Section        0  libinit2.o(.ARM.Collect$$libinit$$00000019)
    .ARM.Collect$$libinit$$0000001B          0x00000146   Section        0  libinit2.o(.ARM.Collect$$libinit$$0000001B)
    .ARM.Collect$$libinit$$0000001D          0x00000146   Section        0  libinit2.o(.ARM.Collect$$libinit$$0000001D)
    .ARM.Collect$$libinit$$0000001F          0x00000146   Section        0  libinit2.o(.ARM.Collect$$libinit$$0000001F)
    .ARM.Collect$$libinit$$00000021          0x00000146   Section        0  libinit2.o(.ARM.Collect$$libinit$$00000021)
    .ARM.Collect$$libinit$$00000023          0x00000146   Section        0  libinit2.o(.ARM.Collect$$libinit$$00000023)
    .ARM.Collect$$libinit$$00000025          0x00000146   Section        0  libinit2.o(.ARM.Collect$$libinit$$00000025)
    .ARM.Collect$$libinit$$0000002C          0x00000146   Section        0  libinit2.o(.ARM.Collect$$libinit$$0000002C)
    .ARM.Collect$$libinit$$0000002E          0x00000146   Section        0  libinit2.o(.ARM.Collect$$libinit$$0000002E)
    .ARM.Collect$$libinit$$00000030          0x00000146   Section        0  libinit2.o(.ARM.Collect$$libinit$$00000030)
    .ARM.Collect$$libinit$$00000032          0x00000146   Section        0  libinit2.o(.ARM.Collect$$libinit$$00000032)
    .ARM.Collect$$libinit$$00000033          0x00000146   Section        2  libinit2.o(.ARM.Collect$$libinit$$00000033)
    .ARM.Collect$$libshutdown$$00000000      0x00000148   Section        2  libshutdown.o(.ARM.Collect$$libshutdown$$00000000)
    .ARM.Collect$$libshutdown$$00000002      0x0000014a   Section        0  libshutdown2.o(.ARM.Collect$$libshutdown$$00000002)
    .ARM.Collect$$libshutdown$$00000004      0x0000014a   Section        0  libshutdown2.o(.ARM.Collect$$libshutdown$$00000004)
    .ARM.Collect$$libshutdown$$00000007      0x0000014a   Section        0  libshutdown2.o(.ARM.Collect$$libshutdown$$00000007)
    .ARM.Collect$$libshutdown$$0000000A      0x0000014a   Section        0  libshutdown2.o(.ARM.Collect$$libshutdown$$0000000A)
    .ARM.Collect$$libshutdown$$0000000C      0x0000014a   Section        0  libshutdown2.o(.ARM.Collect$$libshutdown$$0000000C)
    .ARM.Collect$$libshutdown$$0000000F      0x0000014a   Section        0  libshutdown2.o(.ARM.Collect$$libshutdown$$0000000F)
    .ARM.Collect$$libshutdown$$00000010      0x0000014a   Section        2  libshutdown2.o(.ARM.Collect$$libshutdown$$00000010)
    .ARM.Collect$$rtentry$$00000000          0x0000014c   Section        0  __rtentry.o(.ARM.Collect$$rtentry$$00000000)
    .ARM.Collect$$rtentry$$00000002          0x0000014c   Section        0  __rtentry2.o(.ARM.Collect$$rtentry$$00000002)
    .ARM.Collect$$rtentry$$00000004          0x0000014c   Section        6  __rtentry4.o(.ARM.Collect$$rtentry$$00000004)
    .ARM.Collect$$rtentry$$00000009          0x00000152   Section        0  __rtentry2.o(.ARM.Collect$$rtentry$$00000009)
    .ARM.Collect$$rtentry$$0000000A          0x00000152   Section        4  __rtentry2.o(.ARM.Collect$$rtentry$$0000000A)
    .ARM.Collect$$rtentry$$0000000C          0x00000156   Section        0  __rtentry2.o(.ARM.Collect$$rtentry$$0000000C)
    .ARM.Collect$$rtentry$$0000000D          0x00000156   Section        8  __rtentry2.o(.ARM.Collect$$rtentry$$0000000D)
    .ARM.Collect$$rtexit$$00000000           0x0000015e   Section        2  rtexit.o(.ARM.Collect$$rtexit$$00000000)
    .ARM.Collect$$rtexit$$00000002           0x00000160   Section        0  rtexit2.o(.ARM.Collect$$rtexit$$00000002)
    .ARM.Collect$$rtexit$$00000003           0x00000160   Section        4  rtexit2.o(.ARM.Collect$$rtexit$$00000003)
    .ARM.Collect$$rtexit$$00000004           0x00000164   Section        6  rtexit2.o(.ARM.Collect$$rtexit$$00000004)
    .emb_text                                0x0000016c   Section      120  port.o(.emb_text)
    .emb_text                                0x000001e4   Section       56  rt_memcpy.o(.emb_text)
    .text                                    0x0000021c   Section      156  startup_sc32f58128.o(.text)
    .text                                    0x000002b8   Section        0  lludiv.o(.text)
    .text                                    0x000003bc   Section        0  noretval__2sprintf.o(.text)
    .text                                    0x000003e4   Section        0  __printf.o(.text)
    .text                                    0x00000450   Section        0  _printf_str.o(.text)
    .text                                    0x000004a4   Section        0  _printf_dec.o(.text)
    .text                                    0x00000510   Section        0  strncat.o(.text)
    .text                                    0x00000534   Section        0  strcpy.o(.text)
    .text                                    0x00000580   Section        0  strlen.o(.text)
    .text                                    0x000005c4   Section        0  rt_memcpy.o(.text)
    .text                                    0x00000646   Section        0  aeabi_memset.o(.text)
    .text                                    0x00000658   Section        0  rt_memclr.o(.text)
    .text                                    0x00000698   Section        0  strncpy.o(.text)
    .text                                    0x00000704   Section      346  aeabi_sdiv.o(.text)
    .text                                    0x0000085e   Section        0  heapauxi.o(.text)
    .text                                    0x00000864   Section        0  _printf_intcommon.o(.text)
    .text                                    0x00000914   Section        0  _printf_char_common.o(.text)
    _printf_input_char                       0x00000915   Thumb Code    10  _printf_char_common.o(.text)
    .text                                    0x00000944   Section        0  _sputc.o(.text)
    .text                                    0x0000094e   Section        0  _printf_char.o(.text)
    .text                                    0x0000097c   Section        0  rtudiv10.o(.text)
    .text                                    0x000009a4   Section       62  sys_stackheap_outer.o(.text)
    .text                                    0x000009e2   Section        0  exit.o(.text)
    .text                                    0x000009f4   Section        8  libspace.o(.text)
    .text                                    0x000009fc   Section        0  sys_exit.o(.text)
    .text                                    0x00000a08   Section        2  use_no_semi.o(.text)
    .text                                    0x00000a0a   Section        0  __dczerorl2.o(.text)
    .text                                    0x00000a0a   Section        0  indicate_semi.o(.text)
    i.ADC1_IRQHandler                        0x00000a60   Section        0  sl_niv.o(i.ADC1_IRQHandler)
    i.ADC2_IRQHandler                        0x00000a80   Section        0  sl_niv.o(i.ADC2_IRQHandler)
    i.ADC3_IRQHandler                        0x00000a82   Section        0  sl_niv.o(i.ADC3_IRQHandler)
    i.ADC_IRQHandler                         0x00000a84   Section        0  sl_niv.o(i.ADC_IRQHandler)
    i.BSP_GpioInit                           0x00000a86   Section        0  bsp_gpio.o(i.BSP_GpioInit)
    i.BSP_SpiInit                            0x00000a94   Section        0  bsp_spi.o(i.BSP_SpiInit)
    i.CAN_IRQHandler                         0x00000ad0   Section        0  sl_niv.o(i.CAN_IRQHandler)
    i.COPROC_IRQHandler                      0x00000ad2   Section        0  sl_niv.o(i.COPROC_IRQHandler)
    i.DMA_IRQHandler                         0x00000ad4   Section        0  sl_niv.o(i.DMA_IRQHandler)
    i.ECAP0_IRQHandler                       0x00000ad6   Section        0  sl_niv.o(i.ECAP0_IRQHandler)
    i.ECAP1_IRQHandler                       0x00000ad8   Section        0  sl_niv.o(i.ECAP1_IRQHandler)
    i.ECAP2_IRQHandler                       0x00000ada   Section        0  sl_niv.o(i.ECAP2_IRQHandler)
    i.EQEP0_IRQHandler                       0x00000adc   Section        0  sl_niv.o(i.EQEP0_IRQHandler)
    i.EQEP1_IRQHandler                       0x00000ade   Section        0  sl_niv.o(i.EQEP1_IRQHandler)
    i.ERU0_IRQHandler                        0x00000ae0   Section        0  sl_niv.o(i.ERU0_IRQHandler)
    i.ERU1_IRQHandler                        0x00000ae2   Section        0  sl_niv.o(i.ERU1_IRQHandler)
    i.ERU2_IRQHandler                        0x00000ae4   Section        0  sl_niv.o(i.ERU2_IRQHandler)
    i.ERU3_IRQHandler                        0x00000ae6   Section        0  sl_niv.o(i.ERU3_IRQHandler)
    i.FreeRTOS_CLIGetParameter               0x00000ae8   Section        0  freertos_cli.o(i.FreeRTOS_CLIGetParameter)
    i.FreeRTOS_CLIRegisterCommand            0x00000b50   Section        0  freertos_cli.o(i.FreeRTOS_CLIRegisterCommand)
    i.GPIO_IRQHandler                        0x00000b98   Section        0  sl_niv.o(i.GPIO_IRQHandler)
    i.GPIO_MuxSel                            0x00000b9c   Section        0  sc32f58128_gpio.o(i.GPIO_MuxSel)
    i.GPIO_OpenDrainEnable                   0x00000c14   Section        0  sc32f58128_gpio.o(i.GPIO_OpenDrainEnable)
    i.GPIO_OutputDisable                     0x00000c84   Section        0  sc32f58128_gpio.o(i.GPIO_OutputDisable)
    i.GPIO_OutputEnable                      0x00000caa   Section        0  sc32f58128_gpio.o(i.GPIO_OutputEnable)
    i.GPIO_OutputHighCapabilityEnable        0x00000cd0   Section        0  sc32f58128_gpio.o(i.GPIO_OutputHighCapabilityEnable)
    i.GPIO_PullUpDownSel                     0x00000d40   Section        0  sc32f58128_gpio.o(i.GPIO_PullUpDownSel)
    i.GPIO_SetHigh                           0x00000db8   Section        0  sc32f58128_gpio.o(i.GPIO_SetHigh)
    i.GPIO_SetLow                            0x00000dd8   Section        0  sc32f58128_gpio.o(i.GPIO_SetLow)
    i.HardFault_Handler                      0x00000df8   Section        0  sl_niv.o(i.HardFault_Handler)
    i.I2C_deal                               0x00000dfc   Section        0  sc32f58128_iic.o(i.I2C_deal)
    i.INIT_DeviceInit                        0x00000e9c   Section        0  devinit.o(i.INIT_DeviceInit)
    i.InitSPI0Gpio                           0x00000eac   Section        0  bsp_spi.o(i.InitSPI0Gpio)
    i.NMI_Handler                            0x00000ef0   Section        0  sl_niv.o(i.NMI_Handler)
    i.PWM0_IRQHandler                        0x00000ef2   Section        0  sl_niv.o(i.PWM0_IRQHandler)
    i.PWM1256_IRQHandler                     0x00000ef4   Section        0  sl_niv.o(i.PWM1256_IRQHandler)
    i.PWM3_IRQHandler                        0x00000ef6   Section        0  sl_niv.o(i.PWM3_IRQHandler)
    i.PWM4_IRQHandler                        0x00000ef8   Section        0  sl_niv.o(i.PWM4_IRQHandler)
    i.PWM7_IRQHandler                        0x00000efa   Section        0  sl_niv.o(i.PWM7_IRQHandler)
    i.PWM_CFG                                0x00000efc   Section        0  bsp_pwm.o(i.PWM_CFG)
    i.PWM_PIN_SEL                            0x000010b4   Section        0  bsp_pwm.o(i.PWM_PIN_SEL)
    i.SPI_Cmd                                0x00001138   Section        0  sc32f58128_spi.o(i.SPI_Cmd)
    i.SPI_DEV_SendByte                       0x00001154   Section        0  bsp_spi.o(i.SPI_DEV_SendByte)
    i.SPI_GetFlagStatus                      0x000011ac   Section        0  sc32f58128_spi.o(i.SPI_GetFlagStatus)
    i.SPI_Init                               0x000011c0   Section        0  sc32f58128_spi.o(i.SPI_Init)
    i.SPI_LoopBackCmd                        0x000012c8   Section        0  sc32f58128_spi.o(i.SPI_LoopBackCmd)
    i.SPI_ReceiveData                        0x000012e4   Section        0  sc32f58128_spi.o(i.SPI_ReceiveData)
    i.SPI_SendData                           0x00001350   Section        0  sc32f58128_spi.o(i.SPI_SendData)
    i.SSP01_IRQHandler                       0x000013c0   Section        0  sl_niv.o(i.SSP01_IRQHandler)
    i.SSP23_IIC_IRQHandler                   0x000013c4   Section        0  sl_niv.o(i.SSP23_IIC_IRQHandler)
    i.SVC_Handler                            0x00001688   Section        0  port.o(i.SVC_Handler)
    i.SYS_IRQHandler                         0x0000168a   Section        0  sl_niv.o(i.SYS_IRQHandler)
    i.SysClkDivSel                           0x0000168c   Section        0  sc32f58128_sysclkcfg.o(i.SysClkDivSel)
    i.SysClockConfig                         0x000016d0   Section        0  sc32f58128_sysclkcfg.o(i.SysClockConfig)
    i.SysTick_Handler                        0x000018f8   Section        0  port.o(i.SysTick_Handler)
    i.SystemCoreClockUpdate                  0x0000191c   Section        0  system_sc32f58128.o(i.SystemCoreClockUpdate)
    i.SystemInit                             0x00001a44   Section        0  system_sc32f58128.o(i.SystemInit)
    i.TIMER0_IRQHandler                      0x00001b04   Section        0  sl_niv.o(i.TIMER0_IRQHandler)
    i.TIMER1_IRQHandler                      0x00001b28   Section        0  sl_niv.o(i.TIMER1_IRQHandler)
    i.TIMER234_IRQHandler                    0x00001b2a   Section        0  sl_niv.o(i.TIMER234_IRQHandler)
    i.TIMER_TmrConfig                        0x00001b2c   Section        0  sc32f58128_timer.o(i.TIMER_TmrConfig)
    i.UART0_IRQHandler                       0x00001c2c   Section        0  sl_niv.o(i.UART0_IRQHandler)
    i.UART0_RX_IRQHandler                    0x00001c90   Section        0  sl_niv.o(i.UART0_RX_IRQHandler)
    i.UART12_IRQHandler                      0x00001c92   Section        0  sl_niv.o(i.UART12_IRQHandler)
    i.UserTASK                               0x00001c94   Section        0  usertask.o(i.UserTASK)
    i.__ARM_common_ll_muluu                  0x00001cc0   Section        0  sc32f58128_qep.o(i.__ARM_common_ll_muluu)
    i.__ARM_common_switch8                   0x00001cf0   Section        0  dbgtool.o(i.__ARM_common_switch8)
    i.__NVIC_ClearPendingIRQ                 0x00001d0c   Section        0  devinit.o(i.__NVIC_ClearPendingIRQ)
    __NVIC_ClearPendingIRQ                   0x00001d0d   Thumb Code    18  devinit.o(i.__NVIC_ClearPendingIRQ)
    i.__NVIC_EnableIRQ                       0x00001d24   Section        0  devinit.o(i.__NVIC_EnableIRQ)
    __NVIC_EnableIRQ                         0x00001d25   Thumb Code    26  devinit.o(i.__NVIC_EnableIRQ)
    i.__NVIC_SetPriority                     0x00001d44   Section        0  devinit.o(i.__NVIC_SetPriority)
    __NVIC_SetPriority                       0x00001d45   Thumb Code   110  devinit.o(i.__NVIC_SetPriority)
    i.__get_PRIMASK                          0x00001dbc   Section        0  bsp_gpio.o(i.__get_PRIMASK)
    __get_PRIMASK                            0x00001dbd   Thumb Code     6  bsp_gpio.o(i.__get_PRIMASK)
    i.__get_PRIMASK                          0x00001dc2   Section        0  sc32f58128_gpio.o(i.__get_PRIMASK)
    __get_PRIMASK                            0x00001dc3   Thumb Code     6  sc32f58128_gpio.o(i.__get_PRIMASK)
    i.__set_PRIMASK                          0x00001dc8   Section        0  bsp_gpio.o(i.__set_PRIMASK)
    __set_PRIMASK                            0x00001dc9   Thumb Code     6  bsp_gpio.o(i.__set_PRIMASK)
    i.__set_PRIMASK                          0x00001dce   Section        0  sc32f58128_gpio.o(i.__set_PRIMASK)
    __set_PRIMASK                            0x00001dcf   Thumb Code     6  sc32f58128_gpio.o(i.__set_PRIMASK)
    i.eTaskGetState                          0x00001dd4   Section        0  tasks.o(i.eTaskGetState)
    i.main                                   0x00001e6c   Section        0  sl_main.o(i.main)
    i.main_c1                                0x00001ea8   Section        0  sl_main.o(i.main_c1)
    i.mg_CacheInit                           0x00001eac   Section        0  devinit.o(i.mg_CacheInit)
    i.mg_DevicePeripheralInit                0x00001f80   Section        0  devinit.o(i.mg_DevicePeripheralInit)
    i.mg_DeviceSystemInit                    0x00001f90   Section        0  devinit.o(i.mg_DeviceSystemInit)
    i.mg_DisableOSC                          0x00002004   Section        0  sc32f58128_sysclkcfg.o(i.mg_DisableOSC)
    i.mg_DisablePLL                          0x00002024   Section        0  sc32f58128_sysclkcfg.o(i.mg_DisablePLL)
    i.mg_EnableOSC                           0x00002048   Section        0  sc32f58128_sysclkcfg.o(i.mg_EnableOSC)
    i.mg_EnablePLL                           0x00002074   Section        0  sc32f58128_sysclkcfg.o(i.mg_EnablePLL)
    i.mg_EnableRCH                           0x000020a0   Section        0  sc32f58128_sysclkcfg.o(i.mg_EnableRCH)
    i.mg_PortSelect                          0x000020d8   Section        0  sc32f58128_gpio.o(i.mg_PortSelect)
    i.mg_SetIRQ                              0x00002120   Section        0  devinit.o(i.mg_SetIRQ)
    i.mg_TimerInit                           0x00002178   Section        0  devinit.o(i.mg_TimerInit)
    i.prvAddCurrentTaskToDelayedList         0x00002188   Section        0  tasks.o(i.prvAddCurrentTaskToDelayedList)
    prvAddCurrentTaskToDelayedList           0x00002189   Thumb Code   100  tasks.o(i.prvAddCurrentTaskToDelayedList)
    i.prvAddNewTaskToReadyList               0x00002204   Section        0  tasks.o(i.prvAddNewTaskToReadyList)
    prvAddNewTaskToReadyList                 0x00002205   Thumb Code   146  tasks.o(i.prvAddNewTaskToReadyList)
    i.prvCheckForValidListAndQueue           0x000022b0   Section        0  timers.o(i.prvCheckForValidListAndQueue)
    prvCheckForValidListAndQueue             0x000022b1   Thumb Code    76  timers.o(i.prvCheckForValidListAndQueue)
    i.prvCheckTasksWaitingTermination        0x00002318   Section        0  tasks.o(i.prvCheckTasksWaitingTermination)
    prvCheckTasksWaitingTermination          0x00002319   Thumb Code    60  tasks.o(i.prvCheckTasksWaitingTermination)
    i.prvCopyDataFromQueue                   0x00002360   Section        0  queue.o(i.prvCopyDataFromQueue)
    prvCopyDataFromQueue                     0x00002361   Thumb Code    44  queue.o(i.prvCopyDataFromQueue)
    i.prvCopyDataToQueue                     0x0000238c   Section        0  queue.o(i.prvCopyDataToQueue)
    prvCopyDataToQueue                       0x0000238d   Thumb Code   128  queue.o(i.prvCopyDataToQueue)
    i.prvDeleteTCB                           0x0000240c   Section        0  tasks.o(i.prvDeleteTCB)
    prvDeleteTCB                             0x0000240d   Thumb Code    18  tasks.o(i.prvDeleteTCB)
    i.prvGetNextExpireTime                   0x00002420   Section        0  timers.o(i.prvGetNextExpireTime)
    prvGetNextExpireTime                     0x00002421   Thumb Code    40  timers.o(i.prvGetNextExpireTime)
    i.prvHeapInit                            0x0000244c   Section        0  heap_4.o(i.prvHeapInit)
    prvHeapInit                              0x0000244d   Thumb Code   100  heap_4.o(i.prvHeapInit)
    i.prvHelpCommand                         0x000024c8   Section        0  freertos_cli.o(i.prvHelpCommand)
    prvHelpCommand                           0x000024c9   Thumb Code    66  freertos_cli.o(i.prvHelpCommand)
    i.prvIdleTask                            0x00002514   Section        0  tasks.o(i.prvIdleTask)
    prvIdleTask                              0x00002515   Thumb Code    20  tasks.o(i.prvIdleTask)
    i.prvInitialiseNewQueue                  0x0000252c   Section        0  queue.o(i.prvInitialiseNewQueue)
    prvInitialiseNewQueue                    0x0000252d   Thumb Code    48  queue.o(i.prvInitialiseNewQueue)
    i.prvInitialiseNewTask                   0x0000255c   Section        0  tasks.o(i.prvInitialiseNewTask)
    prvInitialiseNewTask                     0x0000255d   Thumb Code   190  tasks.o(i.prvInitialiseNewTask)
    i.prvInitialiseTaskLists                 0x0000261c   Section        0  tasks.o(i.prvInitialiseTaskLists)
    prvInitialiseTaskLists                   0x0000261d   Thumb Code    68  tasks.o(i.prvInitialiseTaskLists)
    i.prvInsertBlockIntoFreeList             0x00002680   Section        0  heap_4.o(i.prvInsertBlockIntoFreeList)
    prvInsertBlockIntoFreeList               0x00002681   Thumb Code    96  heap_4.o(i.prvInsertBlockIntoFreeList)
    i.prvInsertTimerInActiveList             0x000026e8   Section        0  timers.o(i.prvInsertTimerInActiveList)
    prvInsertTimerInActiveList               0x000026e9   Thumb Code    76  timers.o(i.prvInsertTimerInActiveList)
    i.prvIsQueueEmpty                        0x0000273c   Section        0  queue.o(i.prvIsQueueEmpty)
    prvIsQueueEmpty                          0x0000273d   Thumb Code    28  queue.o(i.prvIsQueueEmpty)
    i.prvIsQueueFull                         0x00002758   Section        0  queue.o(i.prvIsQueueFull)
    prvIsQueueFull                           0x00002759   Thumb Code    30  queue.o(i.prvIsQueueFull)
    i.prvListTasksWithinSingleList           0x00002776   Section        0  tasks.o(i.prvListTasksWithinSingleList)
    prvListTasksWithinSingleList             0x00002777   Thumb Code   106  tasks.o(i.prvListTasksWithinSingleList)
    i.prvNotifyQueueSetContainer             0x000027e0   Section        0  queue.o(i.prvNotifyQueueSetContainer)
    prvNotifyQueueSetContainer               0x000027e1   Thumb Code   138  queue.o(i.prvNotifyQueueSetContainer)
    i.prvParameterEchoCommand                0x0000286c   Section        0  sample-cli-commands.o(i.prvParameterEchoCommand)
    prvParameterEchoCommand                  0x0000286d   Thumb Code   132  sample-cli-commands.o(i.prvParameterEchoCommand)
    i.prvProcessExpiredTimer                 0x00002914   Section        0  timers.o(i.prvProcessExpiredTimer)
    prvProcessExpiredTimer                   0x00002915   Thumb Code   100  timers.o(i.prvProcessExpiredTimer)
    i.prvProcessReceivedCommands             0x0000297c   Section        0  timers.o(i.prvProcessReceivedCommands)
    prvProcessReceivedCommands               0x0000297d   Thumb Code   290  timers.o(i.prvProcessReceivedCommands)
    i.prvProcessTimerOrBlockTask             0x00002aa4   Section        0  timers.o(i.prvProcessTimerOrBlockTask)
    prvProcessTimerOrBlockTask               0x00002aa5   Thumb Code   100  timers.o(i.prvProcessTimerOrBlockTask)
    i.prvQueryHeapCommand                    0x00002b10   Section        0  sample-cli-commands.o(i.prvQueryHeapCommand)
    prvQueryHeapCommand                      0x00002b11   Thumb Code    44  sample-cli-commands.o(i.prvQueryHeapCommand)
    i.prvResetNextTaskUnblockTime            0x00002b7c   Section        0  tasks.o(i.prvResetNextTaskUnblockTime)
    prvResetNextTaskUnblockTime              0x00002b7d   Thumb Code    44  tasks.o(i.prvResetNextTaskUnblockTime)
    i.prvRunTimeStatsCommand                 0x00002bb0   Section        0  sample-cli-commands.o(i.prvRunTimeStatsCommand)
    prvRunTimeStatsCommand                   0x00002bb1   Thumb Code    78  sample-cli-commands.o(i.prvRunTimeStatsCommand)
    i.prvSampleTimeNow                       0x00002c0c   Section        0  timers.o(i.prvSampleTimeNow)
    prvSampleTimeNow                         0x00002c0d   Thumb Code    40  timers.o(i.prvSampleTimeNow)
    i.prvSwitchTimerLists                    0x00002c38   Section        0  timers.o(i.prvSwitchTimerLists)
    prvSwitchTimerLists                      0x00002c39   Thumb Code   140  timers.o(i.prvSwitchTimerLists)
    i.prvTaskCheckFreeStackSpace             0x00002ccc   Section        0  tasks.o(i.prvTaskCheckFreeStackSpace)
    prvTaskCheckFreeStackSpace               0x00002ccd   Thumb Code    22  tasks.o(i.prvTaskCheckFreeStackSpace)
    i.prvTaskExitError                       0x00002ce4   Section        0  port.o(i.prvTaskExitError)
    prvTaskExitError                         0x00002ce5   Thumb Code    32  port.o(i.prvTaskExitError)
    i.prvTaskStatsCommand                    0x00002d08   Section        0  sample-cli-commands.o(i.prvTaskStatsCommand)
    prvTaskStatsCommand                      0x00002d09   Thumb Code    78  sample-cli-commands.o(i.prvTaskStatsCommand)
    i.prvThreeParameterEchoCommand           0x00002d64   Section        0  sample-cli-commands.o(i.prvThreeParameterEchoCommand)
    prvThreeParameterEchoCommand             0x00002d65   Thumb Code   144  sample-cli-commands.o(i.prvThreeParameterEchoCommand)
    i.prvTimerTask                           0x00002e24   Section        0  timers.o(i.prvTimerTask)
    prvTimerTask                             0x00002e25   Thumb Code    26  timers.o(i.prvTimerTask)
    i.prvUnlockQueue                         0x00002e3e   Section        0  queue.o(i.prvUnlockQueue)
    prvUnlockQueue                           0x00002e3f   Thumb Code   164  queue.o(i.prvUnlockQueue)
    i.prvWriteNameToBuffer                   0x00002ee2   Section        0  tasks.o(i.prvWriteNameToBuffer)
    prvWriteNameToBuffer                     0x00002ee3   Thumb Code    42  tasks.o(i.prvWriteNameToBuffer)
    i.pvPortMalloc                           0x00002f0c   Section        0  heap_4.o(i.pvPortMalloc)
    i.pxPortInitialiseStack                  0x00003050   Section        0  port.o(i.pxPortInitialiseStack)
    i.rsv1_IRQHandler                        0x00003070   Section        0  sl_niv.o(i.rsv1_IRQHandler)
    i.u8GPIO_PWM_Init                        0x00003074   Section        0  bsp_gpio.o(i.u8GPIO_PWM_Init)
    i.uxListRemove                           0x00003348   Section        0  list.o(i.uxListRemove)
    i.uxTaskGetSystemState                   0x00003370   Section        0  tasks.o(i.uxTaskGetSystemState)
    i.vGPIO_IN_Init                          0x00003418   Section        0  bsp_gpio.o(i.vGPIO_IN_Init)
    i.vGPIO_OUT_Init                         0x00003478   Section        0  bsp_gpio.o(i.vGPIO_OUT_Init)
    i.vListInitialise                        0x000034f8   Section        0  list.o(i.vListInitialise)
    i.vListInitialiseItem                    0x00003512   Section        0  list.o(i.vListInitialiseItem)
    i.vListInsert                            0x00003518   Section        0  list.o(i.vListInsert)
    i.vListInsertEnd                         0x0000354e   Section        0  list.o(i.vListInsertEnd)
    i.vPortEnterCritical                     0x00003568   Section        0  port.o(i.vPortEnterCritical)
    i.vPortExitCritical                      0x00003584   Section        0  port.o(i.vPortExitCritical)
    i.vPortFree                              0x000035ac   Section        0  heap_4.o(i.vPortFree)
    i.vPortSetupTimerInterrupt               0x0000363c   Section        0  port.o(i.vPortSetupTimerInterrupt)
    i.vPortYield                             0x00003668   Section        0  port.o(i.vPortYield)
    i.vQueueAddToRegistry                    0x00003680   Section        0  queue.o(i.vQueueAddToRegistry)
    i.vQueueWaitForMessageRestricted         0x000036ac   Section        0  queue.o(i.vQueueWaitForMessageRestricted)
    i.vRegisterSampleCLICommands             0x000036f8   Section        0  sample-cli-commands.o(i.vRegisterSampleCLICommands)
    i.vTaskDelay                             0x00003730   Section        0  tasks.o(i.vTaskDelay)
    i.vTaskGetInfo                           0x00003774   Section        0  tasks.o(i.vTaskGetInfo)
    i.vTaskGetRunTimeStats                   0x000037f8   Section        0  tasks.o(i.vTaskGetRunTimeStats)
    i.vTaskInternalSetTimeOutState           0x000038b8   Section        0  tasks.o(i.vTaskInternalSetTimeOutState)
    i.vTaskList                              0x000038d0   Section        0  tasks.o(i.vTaskList)
    i.vTaskMissedYield                       0x000039a0   Section        0  tasks.o(i.vTaskMissedYield)
    i.vTaskPlaceOnEventList                  0x000039ac   Section        0  tasks.o(i.vTaskPlaceOnEventList)
    i.vTaskPlaceOnEventListRestricted        0x000039d8   Section        0  tasks.o(i.vTaskPlaceOnEventListRestricted)
    i.vTaskStartScheduler                    0x00003a0c   Section        0  tasks.o(i.vTaskStartScheduler)
    i.vTaskSuspendAll                        0x00003a94   Section        0  tasks.o(i.vTaskSuspendAll)
    i.vTaskSwitchContext                     0x00003aa4   Section        0  tasks.o(i.vTaskSwitchContext)
    i.xPortGetFreeHeapSize                   0x00003b64   Section        0  heap_4.o(i.xPortGetFreeHeapSize)
    i.xPortGetMinimumEverFreeHeapSize        0x00003b70   Section        0  heap_4.o(i.xPortGetMinimumEverFreeHeapSize)
    i.xPortStartScheduler                    0x00003b7c   Section        0  port.o(i.xPortStartScheduler)
    i.xQueueGenericCreate                    0x00003bb4   Section        0  queue.o(i.xQueueGenericCreate)
    i.xQueueGenericReset                     0x00003c38   Section        0  queue.o(i.xQueueGenericReset)
    i.xQueueGenericSend                      0x00003cba   Section        0  queue.o(i.xQueueGenericSend)
    i.xQueueGenericSendFromISR               0x00003e38   Section        0  queue.o(i.xQueueGenericSendFromISR)
    i.xQueueReceive                          0x00003f2c   Section        0  queue.o(i.xQueueReceive)
    i.xTaskCheckForTimeOut                   0x00004064   Section        0  tasks.o(i.xTaskCheckForTimeOut)
    i.xTaskCreate                            0x000040dc   Section        0  tasks.o(i.xTaskCreate)
    i.xTaskGetSchedulerState                 0x00004138   Section        0  tasks.o(i.xTaskGetSchedulerState)
    i.xTaskGetTickCount                      0x0000415c   Section        0  tasks.o(i.xTaskGetTickCount)
    i.xTaskIncrementTick                     0x00004168   Section        0  tasks.o(i.xTaskIncrementTick)
    i.xTaskPriorityDisinherit                0x000042a4   Section        0  tasks.o(i.xTaskPriorityDisinherit)
    i.xTaskRemoveFromEventList               0x0000432c   Section        0  tasks.o(i.xTaskRemoveFromEventList)
    i.xTaskResumeAll                         0x000043b4   Section        0  tasks.o(i.xTaskResumeAll)
    i.xTimerCreateTimerTask                  0x000044a4   Section        0  timers.o(i.xTimerCreateTimerTask)
    i.xTimerGenericCommand                   0x000044ec   Section        0  timers.o(i.xTimerGenericCommand)
    .constdata                               0x00004560   Section       16  freertos_cli.o(.constdata)
    xHelpCommand                             0x00004560   Data          16  freertos_cli.o(.constdata)
    .constdata                               0x00004570   Section       80  sample-cli-commands.o(.constdata)
    xTaskStats                               0x00004570   Data          16  sample-cli-commands.o(.constdata)
    xThreeParameterEcho                      0x00004580   Data          16  sample-cli-commands.o(.constdata)
    xParameterEcho                           0x00004590   Data          16  sample-cli-commands.o(.constdata)
    xRunTimeStats                            0x000045a0   Data          16  sample-cli-commands.o(.constdata)
    xQueryHeap                               0x000045b0   Data          16  sample-cli-commands.o(.constdata)
    .conststring                             0x000045c0   Section       53  freertos_cli.o(.conststring)
    .conststring                             0x000045f8   Section      675  sample-cli-commands.o(.conststring)
    .data                                    0x20000000   Section        4  sl_main.o(.data)
    AppTask_Handle                           0x20000000   Data           4  sl_main.o(.data)
    .data                                    0x20000004   Section        5  sl_niv.o(.data)
    NackNum                                  0x20000008   Data           1  sl_niv.o(.data)
    .data                                    0x2000000a   Section       16  usertask.o(.data)
    .data                                    0x2000001c   Section       72  tasks.o(.data)
    pxDelayedTaskList                        0x20000020   Data           4  tasks.o(.data)
    pxOverflowDelayedTaskList                0x20000024   Data           4  tasks.o(.data)
    uxDeletedTasksWaitingCleanUp             0x20000028   Data           4  tasks.o(.data)
    uxCurrentNumberOfTasks                   0x2000002c   Data           4  tasks.o(.data)
    xTickCount                               0x20000030   Data           4  tasks.o(.data)
    uxTopReadyPriority                       0x20000034   Data           4  tasks.o(.data)
    xSchedulerRunning                        0x20000038   Data           4  tasks.o(.data)
    xPendedTicks                             0x2000003c   Data           4  tasks.o(.data)
    xYieldPending                            0x20000040   Data           4  tasks.o(.data)
    xNumOfOverflows                          0x20000044   Data           4  tasks.o(.data)
    uxTaskNumber                             0x20000048   Data           4  tasks.o(.data)
    xNextTaskUnblockTime                     0x2000004c   Data           4  tasks.o(.data)
    xIdleTaskHandle                          0x20000050   Data           4  tasks.o(.data)
    uxSchedulerSuspended                     0x20000058   Data           4  tasks.o(.data)
    ulTaskSwitchedInTime                     0x2000005c   Data           4  tasks.o(.data)
    ulTotalRunTime                           0x20000060   Data           4  tasks.o(.data)
    .data                                    0x20000064   Section       20  timers.o(.data)
    pxCurrentTimerList                       0x20000064   Data           4  timers.o(.data)
    pxOverflowTimerList                      0x20000068   Data           4  timers.o(.data)
    xTimerQueue                              0x2000006c   Data           4  timers.o(.data)
    xTimerTaskHandle                         0x20000070   Data           4  timers.o(.data)
    xLastTime                                0x20000074   Data           4  timers.o(.data)
    .data                                    0x20000078   Section        4  port.o(.data)
    uxCriticalNesting                        0x20000078   Data           4  port.o(.data)
    .data                                    0x2000007c   Section       32  heap_4.o(.data)
    xStart                                   0x2000007c   Data           8  heap_4.o(.data)
    pxEnd                                    0x20000084   Data           4  heap_4.o(.data)
    xFreeBytesRemaining                      0x20000088   Data           4  heap_4.o(.data)
    xMinimumEverFreeBytesRemaining           0x2000008c   Data           4  heap_4.o(.data)
    xNumberOfSuccessfulAllocations           0x20000090   Data           4  heap_4.o(.data)
    xNumberOfSuccessfulFrees                 0x20000094   Data           4  heap_4.o(.data)
    xBlockAllocatedBit                       0x20000098   Data           4  heap_4.o(.data)
    .data                                    0x2000009c   Section       20  freertos_cli.o(.data)
    xRegisteredCommands                      0x2000009c   Data           8  freertos_cli.o(.data)
    pxLastCommandInList                      0x200000a4   Data           4  freertos_cli.o(.data)
    pxCommand                                0x200000a8   Data           4  freertos_cli.o(.data)
    pxCommand                                0x200000ac   Data           4  freertos_cli.o(.data)
    .data                                    0x200000b0   Section        8  sample-cli-commands.o(.data)
    uxParameterNumber                        0x200000b0   Data           4  sample-cli-commands.o(.data)
    uxParameterNumber                        0x200000b4   Data           4  sample-cli-commands.o(.data)
    .data                                    0x200000b8   Section       28  system_sc32f58128.o(.data)
    .data                                    0x200000d4   Section       52  sc32f58128_pwm.o(.data)
    .data                                    0x20000108   Section       24  sc32f58128_spi.o(.data)
    .data                                    0x20000120   Section       12  sc32f58128_timer.o(.data)
    .bss                                     0x2000012c   Section      172  bsp_iic.o(.bss)
    .bss                                     0x200001d8   Section       16  bsp_spi.o(.bss)
    .bss                                     0x200001e8   Section       64  queue.o(.bss)
    .bss                                     0x20000228   Section      200  tasks.o(.bss)
    pxReadyTasksLists                        0x20000228   Data         100  tasks.o(.bss)
    xDelayedTaskList1                        0x2000028c   Data          20  tasks.o(.bss)
    xDelayedTaskList2                        0x200002a0   Data          20  tasks.o(.bss)
    xPendingReadyList                        0x200002b4   Data          20  tasks.o(.bss)
    xTasksWaitingTermination                 0x200002c8   Data          20  tasks.o(.bss)
    xSuspendedTaskList                       0x200002dc   Data          20  tasks.o(.bss)
    .bss                                     0x200002f0   Section       40  timers.o(.bss)
    xActiveTimerList1                        0x200002f0   Data          20  timers.o(.bss)
    xActiveTimerList2                        0x20000304   Data          20  timers.o(.bss)
    .bss                                     0x20000318   Section    25600  heap_4.o(.bss)
    ucHeap                                   0x20000318   Data       25600  heap_4.o(.bss)
    .bss                                     0x20006718   Section       96  libspace.o(.bss)
    HEAP                                     0x20006778   Section      256  startup_sc32f58128.o(HEAP)
    Heap_Mem                                 0x20006778   Data         256  startup_sc32f58128.o(HEAP)
    STACK                                    0x20006878   Section      768  startup_sc32f58128.o(STACK)
    Stack_Mem                                0x20006878   Data         768  startup_sc32f58128.o(STACK)
    __initial_sp                             0x20006b78   Data           0  startup_sc32f58128.o(STACK)

    Global Symbols

    Symbol Name                              Value     Ov Type        Size  Object(Section)

    BuildAttributes$$THM_ISAv3M$S$PE$A:L22$X:L11$S22$IEEE1$IW$USESV6$~STKCKD$USESV7$~SHL$OSPACE$ROPI$EBA8$UX$STANDARDLIB$REQ8$PRES8$EABIv2 0x00000000   Number         0  anon$$obj.o ABSOLUTE
    __ARM_use_no_argv                        0x00000000   Number         0  sl_main.o ABSOLUTE
    __Vectors                                0x00000000   Data           4  startup_sc32f58128.o(RESET)
    __ARM_exceptions_init                     - Undefined Weak Reference
    __alloca_initialize                       - Undefined Weak Reference
    __arm_preinit_                            - Undefined Weak Reference
    __cpp_initialize__aeabi_                  - Undefined Weak Reference
    __cxa_finalize                            - Undefined Weak Reference
    __rt_locale                               - Undefined Weak Reference
    __sigvec_lookup                           - Undefined Weak Reference
    _atexit_init                              - Undefined Weak Reference
    _call_atexit_fns                          - Undefined Weak Reference
    _clock_init                               - Undefined Weak Reference
    _fp_trap_init                             - Undefined Weak Reference
    _fp_trap_shutdown                         - Undefined Weak Reference
    _get_lc_collate                           - Undefined Weak Reference
    _get_lc_ctype                             - Undefined Weak Reference
    _get_lc_monetary                          - Undefined Weak Reference
    _get_lc_numeric                           - Undefined Weak Reference
    _get_lc_time                              - Undefined Weak Reference
    _getenv_init                              - Undefined Weak Reference
    _handle_redirection                       - Undefined Weak Reference
    _init_alloc                               - Undefined Weak Reference
    _init_user_alloc                          - Undefined Weak Reference
    _initio                                   - Undefined Weak Reference
    _printf_mbtowc                            - Undefined Weak Reference
    _printf_post_padding                      - Undefined Weak Reference
    _printf_pre_padding                       - Undefined Weak Reference
    _printf_truncate_signed                   - Undefined Weak Reference
    _printf_truncate_unsigned                 - Undefined Weak Reference
    _rand_init                                - Undefined Weak Reference
    _signal_finish                            - Undefined Weak Reference
    _signal_init                              - Undefined Weak Reference
    _terminate_alloc                          - Undefined Weak Reference
    _terminate_user_alloc                     - Undefined Weak Reference
    _terminateio                              - Undefined Weak Reference
    __Vectors_End                            0x000000c0   Data           0  startup_sc32f58128.o(RESET)
    __Vectors_Size                           0x000000c0   Number         0  startup_sc32f58128.o ABSOLUTE
    __main                                   0x000000c1   Thumb Code     8  __main.o(!!!main)
    __scatterload                            0x000000c9   Thumb Code     0  __scatter.o(!!!scatter)
    __scatterload_rt2                        0x000000c9   Thumb Code    52  __scatter.o(!!!scatter)
    __scatterload_rt2_thumb_only             0x000000c9   Thumb Code     0  __scatter.o(!!!scatter)
    __scatterload_null                       0x000000d9   Thumb Code     0  __scatter.o(!!!scatter)
    __scatterload_zeroinit                   0x00000105   Thumb Code    28  __scatter_zi.o(!!handler_zi)
    _printf_percent                          0x00000121   Thumb Code     0  _printf_percent.o(.ARM.Collect$$_printf_percent$$00000000)
    _printf_d                                0x00000123   Thumb Code     0  _printf_d.o(.ARM.Collect$$_printf_percent$$00000009)
    _printf_u                                0x0000012d   Thumb Code     0  _printf_u.o(.ARM.Collect$$_printf_percent$$0000000A)
    _printf_c                                0x00000137   Thumb Code     0  _printf_c.o(.ARM.Collect$$_printf_percent$$00000013)
    _printf_percent_end                      0x00000141   Thumb Code     0  _printf_percent_end.o(.ARM.Collect$$_printf_percent$$00000017)
    __rt_lib_init                            0x00000145   Thumb Code     0  libinit.o(.ARM.Collect$$libinit$$00000000)
    __rt_lib_init_alloca_1                   0x00000147   Thumb Code     0  libinit2.o(.ARM.Collect$$libinit$$0000002E)
    __rt_lib_init_argv_1                     0x00000147   Thumb Code     0  libinit2.o(.ARM.Collect$$libinit$$0000002C)
    __rt_lib_init_atexit_1                   0x00000147   Thumb Code     0  libinit2.o(.ARM.Collect$$libinit$$0000001B)
    __rt_lib_init_clock_1                    0x00000147   Thumb Code     0  libinit2.o(.ARM.Collect$$libinit$$00000021)
    __rt_lib_init_cpp_1                      0x00000147   Thumb Code     0  libinit2.o(.ARM.Collect$$libinit$$00000032)
    __rt_lib_init_exceptions_1               0x00000147   Thumb Code     0  libinit2.o(.ARM.Collect$$libinit$$00000030)
    __rt_lib_init_fp_1                       0x00000147   Thumb Code     0  libinit2.o(.ARM.Collect$$libinit$$00000002)
    __rt_lib_init_fp_trap_1                  0x00000147   Thumb Code     0  libinit2.o(.ARM.Collect$$libinit$$0000001F)
    __rt_lib_init_getenv_1                   0x00000147   Thumb Code     0  libinit2.o(.ARM.Collect$$libinit$$00000023)
    __rt_lib_init_heap_1                     0x00000147   Thumb Code     0  libinit2.o(.ARM.Collect$$libinit$$0000000A)
    __rt_lib_init_lc_collate_1               0x00000147   Thumb Code     0  libinit2.o(.ARM.Collect$$libinit$$00000011)
    __rt_lib_init_lc_ctype_1                 0x00000147   Thumb Code     0  libinit2.o(.ARM.Collect$$libinit$$00000013)
    __rt_lib_init_lc_monetary_1              0x00000147   Thumb Code     0  libinit2.o(.ARM.Collect$$libinit$$00000015)
    __rt_lib_init_lc_numeric_1               0x00000147   Thumb Code     0  libinit2.o(.ARM.Collect$$libinit$$00000017)
    __rt_lib_init_lc_time_1                  0x00000147   Thumb Code     0  libinit2.o(.ARM.Collect$$libinit$$00000019)
    __rt_lib_init_preinit_1                  0x00000147   Thumb Code     0  libinit2.o(.ARM.Collect$$libinit$$00000004)
    __rt_lib_init_rand_1                     0x00000147   Thumb Code     0  libinit2.o(.ARM.Collect$$libinit$$0000000E)
    __rt_lib_init_return                     0x00000147   Thumb Code     0  libinit2.o(.ARM.Collect$$libinit$$00000033)
    __rt_lib_init_signal_1                   0x00000147   Thumb Code     0  libinit2.o(.ARM.Collect$$libinit$$0000001D)
    __rt_lib_init_stdio_1                    0x00000147   Thumb Code     0  libinit2.o(.ARM.Collect$$libinit$$00000025)
    __rt_lib_init_user_alloc_1               0x00000147   Thumb Code     0  libinit2.o(.ARM.Collect$$libinit$$0000000C)
    __rt_lib_shutdown                        0x00000149   Thumb Code     0  libshutdown.o(.ARM.Collect$$libshutdown$$00000000)
    __rt_lib_shutdown_cpp_1                  0x0000014b   Thumb Code     0  libshutdown2.o(.ARM.Collect$$libshutdown$$00000002)
    __rt_lib_shutdown_fp_trap_1              0x0000014b   Thumb Code     0  libshutdown2.o(.ARM.Collect$$libshutdown$$00000007)
    __rt_lib_shutdown_heap_1                 0x0000014b   Thumb Code     0  libshutdown2.o(.ARM.Collect$$libshutdown$$0000000F)
    __rt_lib_shutdown_return                 0x0000014b   Thumb Code     0  libshutdown2.o(.ARM.Collect$$libshutdown$$00000010)
    __rt_lib_shutdown_signal_1               0x0000014b   Thumb Code     0  libshutdown2.o(.ARM.Collect$$libshutdown$$0000000A)
    __rt_lib_shutdown_stdio_1                0x0000014b   Thumb Code     0  libshutdown2.o(.ARM.Collect$$libshutdown$$00000004)
    __rt_lib_shutdown_user_alloc_1           0x0000014b   Thumb Code     0  libshutdown2.o(.ARM.Collect$$libshutdown$$0000000C)
    __rt_entry                               0x0000014d   Thumb Code     0  __rtentry.o(.ARM.Collect$$rtentry$$00000000)
    __rt_entry_presh_1                       0x0000014d   Thumb Code     0  __rtentry2.o(.ARM.Collect$$rtentry$$00000002)
    __rt_entry_sh                            0x0000014d   Thumb Code     0  __rtentry4.o(.ARM.Collect$$rtentry$$00000004)
    __rt_entry_li                            0x00000153   Thumb Code     0  __rtentry2.o(.ARM.Collect$$rtentry$$0000000A)
    __rt_entry_postsh_1                      0x00000153   Thumb Code     0  __rtentry2.o(.ARM.Collect$$rtentry$$00000009)
    __rt_entry_main                          0x00000157   Thumb Code     0  __rtentry2.o(.ARM.Collect$$rtentry$$0000000D)
    __rt_entry_postli_1                      0x00000157   Thumb Code     0  __rtentry2.o(.ARM.Collect$$rtentry$$0000000C)
    __rt_exit                                0x0000015f   Thumb Code     0  rtexit.o(.ARM.Collect$$rtexit$$00000000)
    __rt_exit_ls                             0x00000161   Thumb Code     0  rtexit2.o(.ARM.Collect$$rtexit$$00000003)
    __rt_exit_prels_1                        0x00000161   Thumb Code     0  rtexit2.o(.ARM.Collect$$rtexit$$00000002)
    __rt_exit_exit                           0x00000165   Thumb Code     0  rtexit2.o(.ARM.Collect$$rtexit$$00000004)
    __asm___6_port_c_39a90d8d__prvPortStartFirstTask 0x0000016d   Thumb Code    36  port.o(.emb_text)
    ulSetInterruptMaskFromISR                0x00000195   Thumb Code     8  port.o(.emb_text)
    vClearInterruptMaskFromISR               0x0000019d   Thumb Code     6  port.o(.emb_text)
    PendSV_Handler                           0x000001a3   Thumb Code    62  port.o(.emb_text)
    __aeabi_memcpy4                          0x000001e5   Thumb Code    56  rt_memcpy.o(.emb_text)
    __aeabi_memcpy8                          0x000001e5   Thumb Code     0  rt_memcpy.o(.emb_text)
    Reset_Handler                            0x0000021d   Thumb Code    62  startup_sc32f58128.o(.text)
    __user_initial_stackheap                 0x00000269   Thumb Code    10  startup_sc32f58128.o(.text)
    __aeabi_uldivmod                         0x000002b9   Thumb Code   258  lludiv.o(.text)
    _ll_udiv                                 0x000002b9   Thumb Code     0  lludiv.o(.text)
    __2sprintf                               0x000003bd   Thumb Code    36  noretval__2sprintf.o(.text)
    __printf                                 0x000003e5   Thumb Code   108  __printf.o(.text)
    _printf_str                              0x00000451   Thumb Code    82  _printf_str.o(.text)
    _printf_int_dec                          0x000004a5   Thumb Code    90  _printf_dec.o(.text)
    strncat                                  0x00000511   Thumb Code    36  strncat.o(.text)
    strcpy                                   0x00000535   Thumb Code    70  strcpy.o(.text)
    strlen                                   0x00000581   Thumb Code    62  strlen.o(.text)
    __aeabi_memcpy                           0x000005c5   Thumb Code   130  rt_memcpy.o(.text)
    __rt_memcpy                              0x000005c5   Thumb Code     0  rt_memcpy.o(.text)
    __aeabi_memset                           0x00000647   Thumb Code    18  aeabi_memset.o(.text)
    _memset_w                                0x00000659   Thumb Code    26  rt_memclr.o(.text)
    _memset                                  0x00000673   Thumb Code    30  rt_memclr.o(.text)
    __aeabi_memclr                           0x00000691   Thumb Code     4  rt_memclr.o(.text)
    __rt_memclr                              0x00000691   Thumb Code     0  rt_memclr.o(.text)
    __aeabi_memclr4                          0x00000695   Thumb Code     0  rt_memclr.o(.text)
    __aeabi_memclr8                          0x00000695   Thumb Code     0  rt_memclr.o(.text)
    __rt_memclr_w                            0x00000695   Thumb Code     4  rt_memclr.o(.text)
    strncpy                                  0x00000699   Thumb Code   104  strncpy.o(.text)
    __aeabi_uidiv                            0x00000705   Thumb Code     0  aeabi_sdiv.o(.text)
    __aeabi_uidivmod                         0x00000705   Thumb Code    20  aeabi_sdiv.o(.text)
    __aeabi_idiv                             0x00000719   Thumb Code     0  aeabi_sdiv.o(.text)
    __aeabi_idivmod                          0x00000719   Thumb Code   326  aeabi_sdiv.o(.text)
    __use_two_region_memory                  0x0000085f   Thumb Code     2  heapauxi.o(.text)
    __rt_heap_escrow$2region                 0x00000861   Thumb Code     2  heapauxi.o(.text)
    __rt_heap_expand$2region                 0x00000863   Thumb Code     2  heapauxi.o(.text)
    _printf_int_common                       0x00000865   Thumb Code   176  _printf_intcommon.o(.text)
    _printf_char_common                      0x0000091f   Thumb Code    32  _printf_char_common.o(.text)
    _sputc                                   0x00000945   Thumb Code    10  _sputc.o(.text)
    _printf_cs_common                        0x0000094f   Thumb Code    22  _printf_char.o(.text)
    _printf_char                             0x00000965   Thumb Code    16  _printf_char.o(.text)
    _printf_string                           0x00000975   Thumb Code     8  _printf_char.o(.text)
    __rt_udiv10                              0x0000097d   Thumb Code    40  rtudiv10.o(.text)
    __user_setup_stackheap                   0x000009a5   Thumb Code    62  sys_stackheap_outer.o(.text)
    exit                                     0x000009e3   Thumb Code    16  exit.o(.text)
    __user_libspace                          0x000009f5   Thumb Code     8  libspace.o(.text)
    __user_perproc_libspace                  0x000009f5   Thumb Code     0  libspace.o(.text)
    __user_perthread_libspace                0x000009f5   Thumb Code     0  libspace.o(.text)
    _sys_exit                                0x000009fd   Thumb Code     8  sys_exit.o(.text)
    __I$use$semihosting                      0x00000a09   Thumb Code     0  use_no_semi.o(.text)
    __use_no_semihosting_swi                 0x00000a09   Thumb Code     2  use_no_semi.o(.text)
    __decompress                             0x00000a0b   Thumb Code     0  __dczerorl2.o(.text)
    __decompress1                            0x00000a0b   Thumb Code    86  __dczerorl2.o(.text)
    __semihosting_library_function           0x00000a0b   Thumb Code     0  indicate_semi.o(.text)
    ADC1_IRQHandler                          0x00000a61   Thumb Code    28  sl_niv.o(i.ADC1_IRQHandler)
    ADC2_IRQHandler                          0x00000a81   Thumb Code     2  sl_niv.o(i.ADC2_IRQHandler)
    ADC3_IRQHandler                          0x00000a83   Thumb Code     2  sl_niv.o(i.ADC3_IRQHandler)
    ADC_IRQHandler                           0x00000a85   Thumb Code     2  sl_niv.o(i.ADC_IRQHandler)
    BSP_GpioInit                             0x00000a87   Thumb Code    12  bsp_gpio.o(i.BSP_GpioInit)
    BSP_SpiInit                              0x00000a95   Thumb Code    46  bsp_spi.o(i.BSP_SpiInit)
    CAN_IRQHandler                           0x00000ad1   Thumb Code     2  sl_niv.o(i.CAN_IRQHandler)
    COPROC_IRQHandler                        0x00000ad3   Thumb Code     2  sl_niv.o(i.COPROC_IRQHandler)
    DMA_IRQHandler                           0x00000ad5   Thumb Code     2  sl_niv.o(i.DMA_IRQHandler)
    ECAP0_IRQHandler                         0x00000ad7   Thumb Code     2  sl_niv.o(i.ECAP0_IRQHandler)
    ECAP1_IRQHandler                         0x00000ad9   Thumb Code     2  sl_niv.o(i.ECAP1_IRQHandler)
    ECAP2_IRQHandler                         0x00000adb   Thumb Code     2  sl_niv.o(i.ECAP2_IRQHandler)
    EQEP0_IRQHandler                         0x00000add   Thumb Code     2  sl_niv.o(i.EQEP0_IRQHandler)
    EQEP1_IRQHandler                         0x00000adf   Thumb Code     2  sl_niv.o(i.EQEP1_IRQHandler)
    ERU0_IRQHandler                          0x00000ae1   Thumb Code     2  sl_niv.o(i.ERU0_IRQHandler)
    ERU1_IRQHandler                          0x00000ae3   Thumb Code     2  sl_niv.o(i.ERU1_IRQHandler)
    ERU2_IRQHandler                          0x00000ae5   Thumb Code     2  sl_niv.o(i.ERU2_IRQHandler)
    ERU3_IRQHandler                          0x00000ae7   Thumb Code     2  sl_niv.o(i.ERU3_IRQHandler)
    FreeRTOS_CLIGetParameter                 0x00000ae9   Thumb Code   102  freertos_cli.o(i.FreeRTOS_CLIGetParameter)
    FreeRTOS_CLIRegisterCommand              0x00000b51   Thumb Code    68  freertos_cli.o(i.FreeRTOS_CLIRegisterCommand)
    GPIO_IRQHandler                          0x00000b99   Thumb Code     2  sl_niv.o(i.GPIO_IRQHandler)
    GPIO_MuxSel                              0x00000b9d   Thumb Code    98  sc32f58128_gpio.o(i.GPIO_MuxSel)
    GPIO_OpenDrainEnable                     0x00000c15   Thumb Code    92  sc32f58128_gpio.o(i.GPIO_OpenDrainEnable)
    GPIO_OutputDisable                       0x00000c85   Thumb Code    38  sc32f58128_gpio.o(i.GPIO_OutputDisable)
    GPIO_OutputEnable                        0x00000cab   Thumb Code    38  sc32f58128_gpio.o(i.GPIO_OutputEnable)
    GPIO_OutputHighCapabilityEnable          0x00000cd1   Thumb Code    90  sc32f58128_gpio.o(i.GPIO_OutputHighCapabilityEnable)
    GPIO_PullUpDownSel                       0x00000d41   Thumb Code   100  sc32f58128_gpio.o(i.GPIO_PullUpDownSel)
    GPIO_SetHigh                             0x00000db9   Thumb Code    32  sc32f58128_gpio.o(i.GPIO_SetHigh)
    GPIO_SetLow                              0x00000dd9   Thumb Code    32  sc32f58128_gpio.o(i.GPIO_SetLow)
    HardFault_Handler                        0x00000df9   Thumb Code     4  sl_niv.o(i.HardFault_Handler)
    I2C_deal                                 0x00000dfd   Thumb Code   154  sc32f58128_iic.o(i.I2C_deal)
    INIT_DeviceInit                          0x00000e9d   Thumb Code    16  devinit.o(i.INIT_DeviceInit)
    InitSPI0Gpio                             0x00000ead   Thumb Code    62  bsp_spi.o(i.InitSPI0Gpio)
    NMI_Handler                              0x00000ef1   Thumb Code     2  sl_niv.o(i.NMI_Handler)
    PWM0_IRQHandler                          0x00000ef3   Thumb Code     2  sl_niv.o(i.PWM0_IRQHandler)
    PWM1256_IRQHandler                       0x00000ef5   Thumb Code     2  sl_niv.o(i.PWM1256_IRQHandler)
    PWM3_IRQHandler                          0x00000ef7   Thumb Code     2  sl_niv.o(i.PWM3_IRQHandler)
    PWM4_IRQHandler                          0x00000ef9   Thumb Code     2  sl_niv.o(i.PWM4_IRQHandler)
    PWM7_IRQHandler                          0x00000efb   Thumb Code     2  sl_niv.o(i.PWM7_IRQHandler)
    PWM_CFG                                  0x00000efd   Thumb Code   436  bsp_pwm.o(i.PWM_CFG)
    PWM_PIN_SEL                              0x000010b5   Thumb Code   132  bsp_pwm.o(i.PWM_PIN_SEL)
    SPI_Cmd                                  0x00001139   Thumb Code    26  sc32f58128_spi.o(i.SPI_Cmd)
    SPI_DEV_SendByte                         0x00001155   Thumb Code    84  bsp_spi.o(i.SPI_DEV_SendByte)
    SPI_GetFlagStatus                        0x000011ad   Thumb Code    20  sc32f58128_spi.o(i.SPI_GetFlagStatus)
    SPI_Init                                 0x000011c1   Thumb Code   252  sc32f58128_spi.o(i.SPI_Init)
    SPI_LoopBackCmd                          0x000012c9   Thumb Code    26  sc32f58128_spi.o(i.SPI_LoopBackCmd)
    SPI_ReceiveData                          0x000012e5   Thumb Code   104  sc32f58128_spi.o(i.SPI_ReceiveData)
    SPI_SendData                             0x00001351   Thumb Code   106  sc32f58128_spi.o(i.SPI_SendData)
    SSP01_IRQHandler                         0x000013c1   Thumb Code     2  sl_niv.o(i.SSP01_IRQHandler)
    SSP23_IIC_IRQHandler                     0x000013c5   Thumb Code   694  sl_niv.o(i.SSP23_IIC_IRQHandler)
    SVC_Handler                              0x00001689   Thumb Code     2  port.o(i.SVC_Handler)
    SYS_IRQHandler                           0x0000168b   Thumb Code     2  sl_niv.o(i.SYS_IRQHandler)
    SysClkDivSel                             0x0000168d   Thumb Code    58  sc32f58128_sysclkcfg.o(i.SysClkDivSel)
    SysClockConfig                           0x000016d1   Thumb Code   518  sc32f58128_sysclkcfg.o(i.SysClockConfig)
    SysTick_Handler                          0x000018f9   Thumb Code    32  port.o(i.SysTick_Handler)
    SystemCoreClockUpdate                    0x0000191d   Thumb Code   256  system_sc32f58128.o(i.SystemCoreClockUpdate)
    SystemInit                               0x00001a45   Thumb Code   150  system_sc32f58128.o(i.SystemInit)
    TIMER0_IRQHandler                        0x00001b05   Thumb Code    28  sl_niv.o(i.TIMER0_IRQHandler)
    TIMER1_IRQHandler                        0x00001b29   Thumb Code     2  sl_niv.o(i.TIMER1_IRQHandler)
    TIMER234_IRQHandler                      0x00001b2b   Thumb Code     2  sl_niv.o(i.TIMER234_IRQHandler)
    TIMER_TmrConfig                          0x00001b2d   Thumb Code   242  sc32f58128_timer.o(i.TIMER_TmrConfig)
    UART0_IRQHandler                         0x00001c2d   Thumb Code    92  sl_niv.o(i.UART0_IRQHandler)
    UART0_RX_IRQHandler                      0x00001c91   Thumb Code     2  sl_niv.o(i.UART0_RX_IRQHandler)
    UART12_IRQHandler                        0x00001c93   Thumb Code     2  sl_niv.o(i.UART12_IRQHandler)
    UserTASK                                 0x00001c95   Thumb Code    34  usertask.o(i.UserTASK)
    __ARM_common_ll_muluu                    0x00001cc1   Thumb Code    48  sc32f58128_qep.o(i.__ARM_common_ll_muluu)
    __ARM_common_switch8                     0x00001cf1   Thumb Code    26  dbgtool.o(i.__ARM_common_switch8)
    eTaskGetState                            0x00001dd5   Thumb Code   132  tasks.o(i.eTaskGetState)
    main                                     0x00001e6d   Thumb Code    40  sl_main.o(i.main)
    main_c1                                  0x00001ea9   Thumb Code     4  sl_main.o(i.main_c1)
    mg_CacheInit                             0x00001ead   Thumb Code   184  devinit.o(i.mg_CacheInit)
    mg_DevicePeripheralInit                  0x00001f81   Thumb Code    16  devinit.o(i.mg_DevicePeripheralInit)
    mg_DeviceSystemInit                      0x00001f91   Thumb Code   110  devinit.o(i.mg_DeviceSystemInit)
    mg_DisableOSC                            0x00002005   Thumb Code    22  sc32f58128_sysclkcfg.o(i.mg_DisableOSC)
    mg_DisablePLL                            0x00002025   Thumb Code    26  sc32f58128_sysclkcfg.o(i.mg_DisablePLL)
    mg_EnableOSC                             0x00002049   Thumb Code    36  sc32f58128_sysclkcfg.o(i.mg_EnableOSC)
    mg_EnablePLL                             0x00002075   Thumb Code    36  sc32f58128_sysclkcfg.o(i.mg_EnablePLL)
    mg_EnableRCH                             0x000020a1   Thumb Code    42  sc32f58128_sysclkcfg.o(i.mg_EnableRCH)
    mg_PortSelect                            0x000020d9   Thumb Code    52  sc32f58128_gpio.o(i.mg_PortSelect)
    mg_SetIRQ                                0x00002121   Thumb Code    88  devinit.o(i.mg_SetIRQ)
    mg_TimerInit                             0x00002179   Thumb Code    14  devinit.o(i.mg_TimerInit)
    pvPortMalloc                             0x00002f0d   Thumb Code   300  heap_4.o(i.pvPortMalloc)
    pxPortInitialiseStack                    0x00003051   Thumb Code    26  port.o(i.pxPortInitialiseStack)
    rsv1_IRQHandler                          0x00003071   Thumb Code     2  sl_niv.o(i.rsv1_IRQHandler)
    u8GPIO_PWM_Init                          0x00003075   Thumb Code   680  bsp_gpio.o(i.u8GPIO_PWM_Init)
    uxListRemove                             0x00003349   Thumb Code    40  list.o(i.uxListRemove)
    uxTaskGetSystemState                     0x00003371   Thumb Code   140  tasks.o(i.uxTaskGetSystemState)
    vGPIO_IN_Init                            0x00003419   Thumb Code    94  bsp_gpio.o(i.vGPIO_IN_Init)
    vGPIO_OUT_Init                           0x00003479   Thumb Code   122  bsp_gpio.o(i.vGPIO_OUT_Init)
    vListInitialise                          0x000034f9   Thumb Code    26  list.o(i.vListInitialise)
    vListInitialiseItem                      0x00003513   Thumb Code     6  list.o(i.vListInitialiseItem)
    vListInsert                              0x00003519   Thumb Code    54  list.o(i.vListInsert)
    vListInsertEnd                           0x0000354f   Thumb Code    24  list.o(i.vListInsertEnd)
    vPortEnterCritical                       0x00003569   Thumb Code    22  port.o(i.vPortEnterCritical)
    vPortExitCritical                        0x00003585   Thumb Code    36  port.o(i.vPortExitCritical)
    vPortFree                                0x000035ad   Thumb Code   130  heap_4.o(i.vPortFree)
    vPortSetupTimerInterrupt                 0x0000363d   Thumb Code    34  port.o(i.vPortSetupTimerInterrupt)
    vPortYield                               0x00003669   Thumb Code    18  port.o(i.vPortYield)
    vQueueAddToRegistry                      0x00003681   Thumb Code    40  queue.o(i.vQueueAddToRegistry)
    vQueueWaitForMessageRestricted           0x000036ad   Thumb Code    76  queue.o(i.vQueueWaitForMessageRestricted)
    vRegisterSampleCLICommands               0x000036f9   Thumb Code    34  sample-cli-commands.o(i.vRegisterSampleCLICommands)
    vTaskDelay                               0x00003731   Thumb Code    62  tasks.o(i.vTaskDelay)
    vTaskGetInfo                             0x00003775   Thumb Code   128  tasks.o(i.vTaskGetInfo)
    vTaskGetRunTimeStats                     0x000037f9   Thumb Code   162  tasks.o(i.vTaskGetRunTimeStats)
    vTaskInternalSetTimeOutState             0x000038b9   Thumb Code    14  tasks.o(i.vTaskInternalSetTimeOutState)
    vTaskList                                0x000038d1   Thumb Code   186  tasks.o(i.vTaskList)
    vTaskMissedYield                         0x000039a1   Thumb Code     8  tasks.o(i.vTaskMissedYield)
    vTaskPlaceOnEventList                    0x000039ad   Thumb Code    38  tasks.o(i.vTaskPlaceOnEventList)
    vTaskPlaceOnEventListRestricted          0x000039d9   Thumb Code    48  tasks.o(i.vTaskPlaceOnEventListRestricted)
    vTaskStartScheduler                      0x00003a0d   Thumb Code    98  tasks.o(i.vTaskStartScheduler)
    vTaskSuspendAll                          0x00003a95   Thumb Code    12  tasks.o(i.vTaskSuspendAll)
    vTaskSwitchContext                       0x00003aa5   Thumb Code   160  tasks.o(i.vTaskSwitchContext)
    xPortGetFreeHeapSize                     0x00003b65   Thumb Code     6  heap_4.o(i.xPortGetFreeHeapSize)
    xPortGetMinimumEverFreeHeapSize          0x00003b71   Thumb Code     6  heap_4.o(i.xPortGetMinimumEverFreeHeapSize)
    xPortStartScheduler                      0x00003b7d   Thumb Code    48  port.o(i.xPortStartScheduler)
    xQueueGenericCreate                      0x00003bb5   Thumb Code   132  queue.o(i.xQueueGenericCreate)
    xQueueGenericReset                       0x00003c39   Thumb Code   130  queue.o(i.xQueueGenericReset)
    xQueueGenericSend                        0x00003cbb   Thumb Code   382  queue.o(i.xQueueGenericSend)
    xQueueGenericSendFromISR                 0x00003e39   Thumb Code   244  queue.o(i.xQueueGenericSendFromISR)
    xQueueReceive                            0x00003f2d   Thumb Code   312  queue.o(i.xQueueReceive)
    xTaskCheckForTimeOut                     0x00004065   Thumb Code   110  tasks.o(i.xTaskCheckForTimeOut)
    xTaskCreate                              0x000040dd   Thumb Code    92  tasks.o(i.xTaskCreate)
    xTaskGetSchedulerState                   0x00004139   Thumb Code    28  tasks.o(i.xTaskGetSchedulerState)
    xTaskGetTickCount                        0x0000415d   Thumb Code     6  tasks.o(i.xTaskGetTickCount)
    xTaskIncrementTick                       0x00004169   Thumb Code   270  tasks.o(i.xTaskIncrementTick)
    xTaskPriorityDisinherit                  0x000042a5   Thumb Code   124  tasks.o(i.xTaskPriorityDisinherit)
    xTaskRemoveFromEventList                 0x0000432d   Thumb Code   112  tasks.o(i.xTaskRemoveFromEventList)
    xTaskResumeAll                           0x000043b5   Thumb Code   206  tasks.o(i.xTaskResumeAll)
    xTimerCreateTimerTask                    0x000044a5   Thumb Code    52  timers.o(i.xTimerCreateTimerTask)
    xTimerGenericCommand                     0x000044ed   Thumb Code   110  timers.o(i.xTimerGenericCommand)
    Region$$Table$$Base                      0x0000489c   Number         0  anon$$obj.o(Region$$Table)
    Region$$Table$$Limit                     0x000048bc   Number         0  anon$$obj.o(Region$$Table)
    ulHighFrequencyTimerTicks                0x20000004   Data           4  sl_niv.o(.data)
    accel_data                               0x2000000a   Data           6  usertask.o(.data)
    gyro_data                                0x20000010   Data           6  usertask.o(.data)
    u16SPItestData                           0x20000016   Data           2  usertask.o(.data)
    u16SPIRecData                            0x20000018   Data           2  usertask.o(.data)
    pxCurrentTCB                             0x2000001c   Data           4  tasks.o(.data)
    uxTopUsedPriority                        0x20000054   Data           4  tasks.o(.data)
    ExternalOscClock                         0x200000b8   Data           4  system_sc32f58128.o(.data)
    SystemCoreClock                          0x200000bc   Data           4  system_sc32f58128.o(.data)
    SystemAhbClock                           0x200000c0   Data           4  system_sc32f58128.o(.data)
    SystemApb01Clock                         0x200000c4   Data           4  system_sc32f58128.o(.data)
    SystemApb23Clock                         0x200000c8   Data           4  system_sc32f58128.o(.data)
    SystemMtClock                            0x200000cc   Data           4  system_sc32f58128.o(.data)
    PrimaskState                             0x200000d0   Data           4  system_sc32f58128.o(.data)
    PWM                                      0x200000d4   Data          32  sc32f58128_pwm.o(.data)
    mg_sPwmTest                              0x200000f4   Data          20  sc32f58128_pwm.o(.data)
    SPI                                      0x20000108   Data          16  sc32f58128_spi.o(.data)
    RealSpiClk                               0x20000118   Data           4  sc32f58128_spi.o(.data)
    pu8FirstBit                              0x2000011c   Data           4  sc32f58128_spi.o(.data)
    TIMER                                    0x20000120   Data          12  sc32f58128_timer.o(.data)
    IICInfo                                  0x2000012c   Data          45  bsp_iic.o(.bss)
    strI2cMsg                                0x2000015a   Data         126  bsp_iic.o(.bss)
    SPI_Cfg_Init                             0x200001d8   Data          16  bsp_spi.o(.bss)
    xQueueRegistry                           0x200001e8   Data          64  queue.o(.bss)
    __libspace_start                         0x20006718   Data          96  libspace.o(.bss)
    __temporary_stack_top$libspace           0x20006778   Data           0  libspace.o(.bss)



==============================================================================

Memory Map of the image

  Image Entry point : 0x000000c1

  Load Region LR_IROM1 (Base: 0x00000000, Size: 0x000049e8, Max: 0x00020000, ABSOLUTE, COMPRESSED[0x00004914])

    Execution Region ER_IROM1 (Exec base: 0x00000000, Load base: 0x00000000, Size: 0x000048bc, Max: 0x00020000, ABSOLUTE)

    Exec Addr    Load Addr    Size         Type   Attr      Idx    E Section Name        Object

    0x00000000   0x00000000   0x000000c0   Data   RO         2420    RESET               startup_sc32f58128.o
    0x000000c0   0x000000c0   0x00000008   Code   RO         3886  * !!!main             c_p.l(__main.o)
    0x000000c8   0x000000c8   0x0000003c   Code   RO         4085    !!!scatter          c_p.l(__scatter.o)
    0x00000104   0x00000104   0x0000001c   Code   RO         4087    !!handler_zi        c_p.l(__scatter_zi.o)
    0x00000120   0x00000120   0x00000002   Code   RO         3859    .ARM.Collect$$_printf_percent$$00000000  c_p.l(_printf_percent.o)
    0x00000122   0x00000122   0x0000000a   Code   RO         3857    .ARM.Collect$$_printf_percent$$00000009  c_p.l(_printf_d.o)
    0x0000012c   0x0000012c   0x0000000a   Code   RO         3858    .ARM.Collect$$_printf_percent$$0000000A  c_p.l(_printf_u.o)
    0x00000136   0x00000136   0x0000000a   Code   RO         3856    .ARM.Collect$$_printf_percent$$00000013  c_p.l(_printf_c.o)
    0x00000140   0x00000140   0x00000004   Code   RO         3916    .ARM.Collect$$_printf_percent$$00000017  c_p.l(_printf_percent_end.o)
    0x00000144   0x00000144   0x00000002   Code   RO         3953    .ARM.Collect$$libinit$$00000000  c_p.l(libinit.o)
    0x00000146   0x00000146   0x00000000   Code   RO         3967    .ARM.Collect$$libinit$$00000002  c_p.l(libinit2.o)
    0x00000146   0x00000146   0x00000000   Code   RO         3969    .ARM.Collect$$libinit$$00000004  c_p.l(libinit2.o)
    0x00000146   0x00000146   0x00000000   Code   RO         3972    .ARM.Collect$$libinit$$0000000A  c_p.l(libinit2.o)
    0x00000146   0x00000146   0x00000000   Code   RO         3974    .ARM.Collect$$libinit$$0000000C  c_p.l(libinit2.o)
    0x00000146   0x00000146   0x00000000   Code   RO         3976    .ARM.Collect$$libinit$$0000000E  c_p.l(libinit2.o)
    0x00000146   0x00000146   0x00000000   Code   RO         3979    .ARM.Collect$$libinit$$00000011  c_p.l(libinit2.o)
    0x00000146   0x00000146   0x00000000   Code   RO         3981    .ARM.Collect$$libinit$$00000013  c_p.l(libinit2.o)
    0x00000146   0x00000146   0x00000000   Code   RO         3983    .ARM.Collect$$libinit$$00000015  c_p.l(libinit2.o)
    0x00000146   0x00000146   0x00000000   Code   RO         3985    .ARM.Collect$$libinit$$00000017  c_p.l(libinit2.o)
    0x00000146   0x00000146   0x00000000   Code   RO         3987    .ARM.Collect$$libinit$$00000019  c_p.l(libinit2.o)
    0x00000146   0x00000146   0x00000000   Code   RO         3989    .ARM.Collect$$libinit$$0000001B  c_p.l(libinit2.o)
    0x00000146   0x00000146   0x00000000   Code   RO         3991    .ARM.Collect$$libinit$$0000001D  c_p.l(libinit2.o)
    0x00000146   0x00000146   0x00000000   Code   RO         3993    .ARM.Collect$$libinit$$0000001F  c_p.l(libinit2.o)
    0x00000146   0x00000146   0x00000000   Code   RO         3995    .ARM.Collect$$libinit$$00000021  c_p.l(libinit2.o)
    0x00000146   0x00000146   0x00000000   Code   RO         3997    .ARM.Collect$$libinit$$00000023  c_p.l(libinit2.o)
    0x00000146   0x00000146   0x00000000   Code   RO         3999    .ARM.Collect$$libinit$$00000025  c_p.l(libinit2.o)
    0x00000146   0x00000146   0x00000000   Code   RO         4003    .ARM.Collect$$libinit$$0000002C  c_p.l(libinit2.o)
    0x00000146   0x00000146   0x00000000   Code   RO         4005    .ARM.Collect$$libinit$$0000002E  c_p.l(libinit2.o)
    0x00000146   0x00000146   0x00000000   Code   RO         4007    .ARM.Collect$$libinit$$00000030  c_p.l(libinit2.o)
    0x00000146   0x00000146   0x00000000   Code   RO         4009    .ARM.Collect$$libinit$$00000032  c_p.l(libinit2.o)
    0x00000146   0x00000146   0x00000002   Code   RO         4010    .ARM.Collect$$libinit$$00000033  c_p.l(libinit2.o)
    0x00000148   0x00000148   0x00000002   Code   RO         4041    .ARM.Collect$$libshutdown$$00000000  c_p.l(libshutdown.o)
    0x0000014a   0x0000014a   0x00000000   Code   RO         4067    .ARM.Collect$$libshutdown$$00000002  c_p.l(libshutdown2.o)
    0x0000014a   0x0000014a   0x00000000   Code   RO         4069    .ARM.Collect$$libshutdown$$00000004  c_p.l(libshutdown2.o)
    0x0000014a   0x0000014a   0x00000000   Code   RO         4072    .ARM.Collect$$libshutdown$$00000007  c_p.l(libshutdown2.o)
    0x0000014a   0x0000014a   0x00000000   Code   RO         4075    .ARM.Collect$$libshutdown$$0000000A  c_p.l(libshutdown2.o)
    0x0000014a   0x0000014a   0x00000000   Code   RO         4077    .ARM.Collect$$libshutdown$$0000000C  c_p.l(libshutdown2.o)
    0x0000014a   0x0000014a   0x00000000   Code   RO         4080    .ARM.Collect$$libshutdown$$0000000F  c_p.l(libshutdown2.o)
    0x0000014a   0x0000014a   0x00000002   Code   RO         4081    .ARM.Collect$$libshutdown$$00000010  c_p.l(libshutdown2.o)
    0x0000014c   0x0000014c   0x00000000   Code   RO         3899    .ARM.Collect$$rtentry$$00000000  c_p.l(__rtentry.o)
    0x0000014c   0x0000014c   0x00000000   Code   RO         3921    .ARM.Collect$$rtentry$$00000002  c_p.l(__rtentry2.o)
    0x0000014c   0x0000014c   0x00000006   Code   RO         3933    .ARM.Collect$$rtentry$$00000004  c_p.l(__rtentry4.o)
    0x00000152   0x00000152   0x00000000   Code   RO         3923    .ARM.Collect$$rtentry$$00000009  c_p.l(__rtentry2.o)
    0x00000152   0x00000152   0x00000004   Code   RO         3924    .ARM.Collect$$rtentry$$0000000A  c_p.l(__rtentry2.o)
    0x00000156   0x00000156   0x00000000   Code   RO         3926    .ARM.Collect$$rtentry$$0000000C  c_p.l(__rtentry2.o)
    0x00000156   0x00000156   0x00000008   Code   RO         3927    .ARM.Collect$$rtentry$$0000000D  c_p.l(__rtentry2.o)
    0x0000015e   0x0000015e   0x00000002   Code   RO         3958    .ARM.Collect$$rtexit$$00000000  c_p.l(rtexit.o)
    0x00000160   0x00000160   0x00000000   Code   RO         4014    .ARM.Collect$$rtexit$$00000002  c_p.l(rtexit2.o)
    0x00000160   0x00000160   0x00000004   Code   RO         4015    .ARM.Collect$$rtexit$$00000003  c_p.l(rtexit2.o)
    0x00000164   0x00000164   0x00000006   Code   RO         4016    .ARM.Collect$$rtexit$$00000004  c_p.l(rtexit2.o)
    0x0000016a   0x0000016a   0x00000002   PAD
    0x0000016c   0x0000016c   0x00000078   Code   RO         2050    .emb_text           port.o
    0x000001e4   0x000001e4   0x00000038   Code   RO         3868    .emb_text           c_p.l(rt_memcpy.o)
    0x0000021c   0x0000021c   0x0000009c   Code   RO         2421    .text               startup_sc32f58128.o
    0x000002b8   0x000002b8   0x00000102   Code   RO         3824    .text               c_p.l(lludiv.o)
    0x000003ba   0x000003ba   0x00000002   PAD
    0x000003bc   0x000003bc   0x00000028   Code   RO         3828    .text               c_p.l(noretval__2sprintf.o)
    0x000003e4   0x000003e4   0x0000006c   Code   RO         3830    .text               c_p.l(__printf.o)
    0x00000450   0x00000450   0x00000052   Code   RO         3832    .text               c_p.l(_printf_str.o)
    0x000004a2   0x000004a2   0x00000002   PAD
    0x000004a4   0x000004a4   0x0000006c   Code   RO         3834    .text               c_p.l(_printf_dec.o)
    0x00000510   0x00000510   0x00000024   Code   RO         3860    .text               c_p.l(strncat.o)
    0x00000534   0x00000534   0x0000004c   Code   RO         3862    .text               c_p.l(strcpy.o)
    0x00000580   0x00000580   0x00000044   Code   RO         3864    .text               c_p.l(strlen.o)
    0x000005c4   0x000005c4   0x00000082   Code   RO         3869    .text               c_p.l(rt_memcpy.o)
    0x00000646   0x00000646   0x00000012   Code   RO         3874    .text               c_p.l(aeabi_memset.o)
    0x00000658   0x00000658   0x00000040   Code   RO         3876    .text               c_p.l(rt_memclr.o)
    0x00000698   0x00000698   0x0000006c   Code   RO         3878    .text               c_p.l(strncpy.o)
    0x00000704   0x00000704   0x0000015a   Code   RO         3880    .text               c_p.l(aeabi_sdiv.o)
    0x0000085e   0x0000085e   0x00000006   Code   RO         3884    .text               c_p.l(heapauxi.o)
    0x00000864   0x00000864   0x000000b0   Code   RO         3908    .text               c_p.l(_printf_intcommon.o)
    0x00000914   0x00000914   0x00000030   Code   RO         3910    .text               c_p.l(_printf_char_common.o)
    0x00000944   0x00000944   0x0000000a   Code   RO         3912    .text               c_p.l(_sputc.o)
    0x0000094e   0x0000094e   0x0000002e   Code   RO         3914    .text               c_p.l(_printf_char.o)
    0x0000097c   0x0000097c   0x00000028   Code   RO         3917    .text               c_p.l(rtudiv10.o)
    0x000009a4   0x000009a4   0x0000003e   Code   RO         3939    .text               c_p.l(sys_stackheap_outer.o)
    0x000009e2   0x000009e2   0x00000010   Code   RO         3942    .text               c_p.l(exit.o)
    0x000009f2   0x000009f2   0x00000002   PAD
    0x000009f4   0x000009f4   0x00000008   Code   RO         3954    .text               c_p.l(libspace.o)
    0x000009fc   0x000009fc   0x0000000c   Code   RO         4011    .text               c_p.l(sys_exit.o)
    0x00000a08   0x00000a08   0x00000002   Code   RO         4030    .text               c_p.l(use_no_semi.o)
    0x00000a0a   0x00000a0a   0x00000000   Code   RO         4032    .text               c_p.l(indicate_semi.o)
    0x00000a0a   0x00000a0a   0x00000056   Code   RO         4083    .text               c_p.l(__dczerorl2.o)
    0x00000a60   0x00000a60   0x00000020   Code   RO          173    i.ADC1_IRQHandler   sl_niv.o
    0x00000a80   0x00000a80   0x00000002   Code   RO          174    i.ADC2_IRQHandler   sl_niv.o
    0x00000a82   0x00000a82   0x00000002   Code   RO          175    i.ADC3_IRQHandler   sl_niv.o
    0x00000a84   0x00000a84   0x00000002   Code   RO          176    i.ADC_IRQHandler    sl_niv.o
    0x00000a86   0x00000a86   0x0000000c   Code   RO          570    i.BSP_GpioInit      bsp_gpio.o
    0x00000a92   0x00000a92   0x00000002   PAD
    0x00000a94   0x00000a94   0x0000003c   Code   RO          853    i.BSP_SpiInit       bsp_spi.o
    0x00000ad0   0x00000ad0   0x00000002   Code   RO          177    i.CAN_IRQHandler    sl_niv.o
    0x00000ad2   0x00000ad2   0x00000002   Code   RO          178    i.COPROC_IRQHandler  sl_niv.o
    0x00000ad4   0x00000ad4   0x00000002   Code   RO          179    i.DMA_IRQHandler    sl_niv.o
    0x00000ad6   0x00000ad6   0x00000002   Code   RO          180    i.ECAP0_IRQHandler  sl_niv.o
    0x00000ad8   0x00000ad8   0x00000002   Code   RO          181    i.ECAP1_IRQHandler  sl_niv.o
    0x00000ada   0x00000ada   0x00000002   Code   RO          182    i.ECAP2_IRQHandler  sl_niv.o
    0x00000adc   0x00000adc   0x00000002   Code   RO          183    i.EQEP0_IRQHandler  sl_niv.o
    0x00000ade   0x00000ade   0x00000002   Code   RO          184    i.EQEP1_IRQHandler  sl_niv.o
    0x00000ae0   0x00000ae0   0x00000002   Code   RO          185    i.ERU0_IRQHandler   sl_niv.o
    0x00000ae2   0x00000ae2   0x00000002   Code   RO          186    i.ERU1_IRQHandler   sl_niv.o
    0x00000ae4   0x00000ae4   0x00000002   Code   RO          187    i.ERU2_IRQHandler   sl_niv.o
    0x00000ae6   0x00000ae6   0x00000002   Code   RO          188    i.ERU3_IRQHandler   sl_niv.o
    0x00000ae8   0x00000ae8   0x00000066   Code   RO         2177    i.FreeRTOS_CLIGetParameter  freertos_cli.o
    0x00000b4e   0x00000b4e   0x00000002   PAD
    0x00000b50   0x00000b50   0x00000048   Code   RO         2179    i.FreeRTOS_CLIRegisterCommand  freertos_cli.o
    0x00000b98   0x00000b98   0x00000002   Code   RO          189    i.GPIO_IRQHandler   sl_niv.o
    0x00000b9a   0x00000b9a   0x00000002   PAD
    0x00000b9c   0x00000b9c   0x00000078   Code   RO         2880    i.GPIO_MuxSel       sc32f58128_gpio.o
    0x00000c14   0x00000c14   0x00000070   Code   RO         2882    i.GPIO_OpenDrainEnable  sc32f58128_gpio.o
    0x00000c84   0x00000c84   0x00000026   Code   RO         2883    i.GPIO_OutputDisable  sc32f58128_gpio.o
    0x00000caa   0x00000caa   0x00000026   Code   RO         2884    i.GPIO_OutputEnable  sc32f58128_gpio.o
    0x00000cd0   0x00000cd0   0x00000070   Code   RO         2886    i.GPIO_OutputHighCapabilityEnable  sc32f58128_gpio.o
    0x00000d40   0x00000d40   0x00000078   Code   RO         2887    i.GPIO_PullUpDownSel  sc32f58128_gpio.o
    0x00000db8   0x00000db8   0x00000020   Code   RO         2888    i.GPIO_SetHigh      sc32f58128_gpio.o
    0x00000dd8   0x00000dd8   0x00000020   Code   RO         2889    i.GPIO_SetLow       sc32f58128_gpio.o
    0x00000df8   0x00000df8   0x00000004   Code   RO          190    i.HardFault_Handler  sl_niv.o
    0x00000dfc   0x00000dfc   0x000000a0   Code   RO         3127    i.I2C_deal          sc32f58128_iic.o
    0x00000e9c   0x00000e9c   0x00000010   Code   RO          464    i.INIT_DeviceInit   devinit.o
    0x00000eac   0x00000eac   0x00000044   Code   RO          854    i.InitSPI0Gpio      bsp_spi.o
    0x00000ef0   0x00000ef0   0x00000002   Code   RO          191    i.NMI_Handler       sl_niv.o
    0x00000ef2   0x00000ef2   0x00000002   Code   RO          192    i.PWM0_IRQHandler   sl_niv.o
    0x00000ef4   0x00000ef4   0x00000002   Code   RO          193    i.PWM1256_IRQHandler  sl_niv.o
    0x00000ef6   0x00000ef6   0x00000002   Code   RO          194    i.PWM3_IRQHandler   sl_niv.o
    0x00000ef8   0x00000ef8   0x00000002   Code   RO          195    i.PWM4_IRQHandler   sl_niv.o
    0x00000efa   0x00000efa   0x00000002   Code   RO          196    i.PWM7_IRQHandler   sl_niv.o
    0x00000efc   0x00000efc   0x000001b8   Code   RO          713    i.PWM_CFG           bsp_pwm.o
    0x000010b4   0x000010b4   0x00000084   Code   RO          716    i.PWM_PIN_SEL       bsp_pwm.o
    0x00001138   0x00001138   0x0000001a   Code   RO         3262    i.SPI_Cmd           sc32f58128_spi.o
    0x00001152   0x00001152   0x00000002   PAD
    0x00001154   0x00001154   0x00000058   Code   RO          855    i.SPI_DEV_SendByte  bsp_spi.o
    0x000011ac   0x000011ac   0x00000014   Code   RO         3265    i.SPI_GetFlagStatus  sc32f58128_spi.o
    0x000011c0   0x000011c0   0x00000108   Code   RO         3269    i.SPI_Init          sc32f58128_spi.o
    0x000012c8   0x000012c8   0x0000001a   Code   RO         3270    i.SPI_LoopBackCmd   sc32f58128_spi.o
    0x000012e2   0x000012e2   0x00000002   PAD
    0x000012e4   0x000012e4   0x0000006c   Code   RO         3271    i.SPI_ReceiveData   sc32f58128_spi.o
    0x00001350   0x00001350   0x00000070   Code   RO         3272    i.SPI_SendData      sc32f58128_spi.o
    0x000013c0   0x000013c0   0x00000002   Code   RO          198    i.SSP01_IRQHandler  sl_niv.o
    0x000013c2   0x000013c2   0x00000002   PAD
    0x000013c4   0x000013c4   0x000002c4   Code   RO          199    i.SSP23_IIC_IRQHandler  sl_niv.o
    0x00001688   0x00001688   0x00000002   Code   RO         2051    i.SVC_Handler       port.o
    0x0000168a   0x0000168a   0x00000002   Code   RO          201    i.SYS_IRQHandler    sl_niv.o
    0x0000168c   0x0000168c   0x00000044   Code   RO         2471    i.SysClkDivSel      sc32f58128_sysclkcfg.o
    0x000016d0   0x000016d0   0x00000228   Code   RO         2472    i.SysClockConfig    sc32f58128_sysclkcfg.o
    0x000018f8   0x000018f8   0x00000024   Code   RO         2052    i.SysTick_Handler   port.o
    0x0000191c   0x0000191c   0x00000128   Code   RO         2429    i.SystemCoreClockUpdate  system_sc32f58128.o
    0x00001a44   0x00001a44   0x000000c0   Code   RO         2430    i.SystemInit        system_sc32f58128.o
    0x00001b04   0x00001b04   0x00000024   Code   RO          203    i.TIMER0_IRQHandler  sl_niv.o
    0x00001b28   0x00001b28   0x00000002   Code   RO          204    i.TIMER1_IRQHandler  sl_niv.o
    0x00001b2a   0x00001b2a   0x00000002   Code   RO          205    i.TIMER234_IRQHandler  sl_niv.o
    0x00001b2c   0x00001b2c   0x00000100   Code   RO         3362    i.TIMER_TmrConfig   sc32f58128_timer.o
    0x00001c2c   0x00001c2c   0x00000064   Code   RO          206    i.UART0_IRQHandler  sl_niv.o
    0x00001c90   0x00001c90   0x00000002   Code   RO          207    i.UART0_RX_IRQHandler  sl_niv.o
    0x00001c92   0x00001c92   0x00000002   Code   RO          208    i.UART12_IRQHandler  sl_niv.o
    0x00001c94   0x00001c94   0x0000002c   Code   RO          441    i.UserTASK          usertask.o
    0x00001cc0   0x00001cc0   0x00000030   Code   RO         3248    i.__ARM_common_ll_muluu  sc32f58128_qep.o
    0x00001cf0   0x00001cf0   0x0000001a   Code   RO         3634    i.__ARM_common_switch8  OSC.lib(dbgtool.o)
    0x00001d0a   0x00001d0a   0x00000002   PAD
    0x00001d0c   0x00001d0c   0x00000018   Code   RO          466    i.__NVIC_ClearPendingIRQ  devinit.o
    0x00001d24   0x00001d24   0x00000020   Code   RO          467    i.__NVIC_EnableIRQ  devinit.o
    0x00001d44   0x00001d44   0x00000078   Code   RO          468    i.__NVIC_SetPriority  devinit.o
    0x00001dbc   0x00001dbc   0x00000006   Code   RO          571    i.__get_PRIMASK     bsp_gpio.o
    0x00001dc2   0x00001dc2   0x00000006   Code   RO         2891    i.__get_PRIMASK     sc32f58128_gpio.o
    0x00001dc8   0x00001dc8   0x00000006   Code   RO          572    i.__set_PRIMASK     bsp_gpio.o
    0x00001dce   0x00001dce   0x00000006   Code   RO         2892    i.__set_PRIMASK     sc32f58128_gpio.o
    0x00001dd4   0x00001dd4   0x00000098   Code   RO         1515    i.eTaskGetState     tasks.o
    0x00001e6c   0x00001e6c   0x0000003c   Code   RO            3    i.main              sl_main.o
    0x00001ea8   0x00001ea8   0x00000004   Code   RO            4    i.main_c1           sl_main.o
    0x00001eac   0x00001eac   0x000000d4   Code   RO          469    i.mg_CacheInit      devinit.o
    0x00001f80   0x00001f80   0x00000010   Code   RO          470    i.mg_DevicePeripheralInit  devinit.o
    0x00001f90   0x00001f90   0x00000074   Code   RO          471    i.mg_DeviceSystemInit  devinit.o
    0x00002004   0x00002004   0x00000020   Code   RO         2473    i.mg_DisableOSC     sc32f58128_sysclkcfg.o
    0x00002024   0x00002024   0x00000024   Code   RO         2474    i.mg_DisablePLL     sc32f58128_sysclkcfg.o
    0x00002048   0x00002048   0x0000002c   Code   RO         2476    i.mg_EnableOSC      sc32f58128_sysclkcfg.o
    0x00002074   0x00002074   0x0000002c   Code   RO         2477    i.mg_EnablePLL      sc32f58128_sysclkcfg.o
    0x000020a0   0x000020a0   0x00000038   Code   RO         2478    i.mg_EnableRCH      sc32f58128_sysclkcfg.o
    0x000020d8   0x000020d8   0x00000048   Code   RO         2893    i.mg_PortSelect     sc32f58128_gpio.o
    0x00002120   0x00002120   0x00000058   Code   RO          472    i.mg_SetIRQ         devinit.o
    0x00002178   0x00002178   0x0000000e   Code   RO          474    i.mg_TimerInit      devinit.o
    0x00002186   0x00002186   0x00000002   PAD
    0x00002188   0x00002188   0x0000007c   Code   RO         1517    i.prvAddCurrentTaskToDelayedList  tasks.o
    0x00002204   0x00002204   0x000000ac   Code   RO         1518    i.prvAddNewTaskToReadyList  tasks.o
    0x000022b0   0x000022b0   0x00000068   Code   RO         1902    i.prvCheckForValidListAndQueue  timers.o
    0x00002318   0x00002318   0x00000048   Code   RO         1519    i.prvCheckTasksWaitingTermination  tasks.o
    0x00002360   0x00002360   0x0000002c   Code   RO         1108    i.prvCopyDataFromQueue  queue.o
    0x0000238c   0x0000238c   0x00000080   Code   RO         1109    i.prvCopyDataToQueue  queue.o
    0x0000240c   0x0000240c   0x00000012   Code   RO         1520    i.prvDeleteTCB      tasks.o
    0x0000241e   0x0000241e   0x00000002   PAD
    0x00002420   0x00002420   0x0000002c   Code   RO         1903    i.prvGetNextExpireTime  timers.o
    0x0000244c   0x0000244c   0x0000007c   Code   RO         2121    i.prvHeapInit       heap_4.o
    0x000024c8   0x000024c8   0x0000004c   Code   RO         2181    i.prvHelpCommand    freertos_cli.o
    0x00002514   0x00002514   0x00000018   Code   RO         1521    i.prvIdleTask       tasks.o
    0x0000252c   0x0000252c   0x00000030   Code   RO         1112    i.prvInitialiseNewQueue  queue.o
    0x0000255c   0x0000255c   0x000000be   Code   RO         1522    i.prvInitialiseNewTask  tasks.o
    0x0000261a   0x0000261a   0x00000002   PAD
    0x0000261c   0x0000261c   0x00000064   Code   RO         1523    i.prvInitialiseTaskLists  tasks.o
    0x00002680   0x00002680   0x00000068   Code   RO         2122    i.prvInsertBlockIntoFreeList  heap_4.o
    0x000026e8   0x000026e8   0x00000054   Code   RO         1905    i.prvInsertTimerInActiveList  timers.o
    0x0000273c   0x0000273c   0x0000001c   Code   RO         1113    i.prvIsQueueEmpty   queue.o
    0x00002758   0x00002758   0x0000001e   Code   RO         1114    i.prvIsQueueFull    queue.o
    0x00002776   0x00002776   0x0000006a   Code   RO         1524    i.prvListTasksWithinSingleList  tasks.o
    0x000027e0   0x000027e0   0x0000008a   Code   RO         1115    i.prvNotifyQueueSetContainer  queue.o
    0x0000286a   0x0000286a   0x00000002   PAD
    0x0000286c   0x0000286c   0x000000a8   Code   RO         2224    i.prvParameterEchoCommand  sample-cli-commands.o
    0x00002914   0x00002914   0x00000068   Code   RO         1906    i.prvProcessExpiredTimer  timers.o
    0x0000297c   0x0000297c   0x00000128   Code   RO         1907    i.prvProcessReceivedCommands  timers.o
    0x00002aa4   0x00002aa4   0x0000006c   Code   RO         1908    i.prvProcessTimerOrBlockTask  timers.o
    0x00002b10   0x00002b10   0x0000006c   Code   RO         2225    i.prvQueryHeapCommand  sample-cli-commands.o
    0x00002b7c   0x00002b7c   0x00000034   Code   RO         1525    i.prvResetNextTaskUnblockTime  tasks.o
    0x00002bb0   0x00002bb0   0x0000005c   Code   RO         2226    i.prvRunTimeStatsCommand  sample-cli-commands.o
    0x00002c0c   0x00002c0c   0x0000002c   Code   RO         1909    i.prvSampleTimeNow  timers.o
    0x00002c38   0x00002c38   0x00000094   Code   RO         1910    i.prvSwitchTimerLists  timers.o
    0x00002ccc   0x00002ccc   0x00000016   Code   RO         1526    i.prvTaskCheckFreeStackSpace  tasks.o
    0x00002ce2   0x00002ce2   0x00000002   PAD
    0x00002ce4   0x00002ce4   0x00000024   Code   RO         2053    i.prvTaskExitError  port.o
    0x00002d08   0x00002d08   0x0000005c   Code   RO         2227    i.prvTaskStatsCommand  sample-cli-commands.o
    0x00002d64   0x00002d64   0x000000c0   Code   RO         2228    i.prvThreeParameterEchoCommand  sample-cli-commands.o
    0x00002e24   0x00002e24   0x0000001a   Code   RO         1911    i.prvTimerTask      timers.o
    0x00002e3e   0x00002e3e   0x000000a4   Code   RO         1116    i.prvUnlockQueue    queue.o
    0x00002ee2   0x00002ee2   0x0000002a   Code   RO         1528    i.prvWriteNameToBuffer  tasks.o
    0x00002f0c   0x00002f0c   0x00000144   Code   RO         2123    i.pvPortMalloc      heap_4.o
    0x00003050   0x00003050   0x00000020   Code   RO         2054    i.pxPortInitialiseStack  port.o
    0x00003070   0x00003070   0x00000002   Code   RO          209    i.rsv1_IRQHandler   sl_niv.o
    0x00003072   0x00003072   0x00000002   PAD
    0x00003074   0x00003074   0x000002d4   Code   RO          573    i.u8GPIO_PWM_Init   bsp_gpio.o
    0x00003348   0x00003348   0x00000028   Code   RO         1071    i.uxListRemove      list.o
    0x00003370   0x00003370   0x000000a8   Code   RO         1533    i.uxTaskGetSystemState  tasks.o
    0x00003418   0x00003418   0x0000005e   Code   RO          574    i.vGPIO_IN_Init     bsp_gpio.o
    0x00003476   0x00003476   0x00000002   PAD
    0x00003478   0x00003478   0x00000080   Code   RO          575    i.vGPIO_OUT_Init    bsp_gpio.o
    0x000034f8   0x000034f8   0x0000001a   Code   RO         1072    i.vListInitialise   list.o
    0x00003512   0x00003512   0x00000006   Code   RO         1073    i.vListInitialiseItem  list.o
    0x00003518   0x00003518   0x00000036   Code   RO         1074    i.vListInsert       list.o
    0x0000354e   0x0000354e   0x00000018   Code   RO         1075    i.vListInsertEnd    list.o
    0x00003566   0x00003566   0x00000002   PAD
    0x00003568   0x00003568   0x0000001c   Code   RO         2056    i.vPortEnterCritical  port.o
    0x00003584   0x00003584   0x00000028   Code   RO         2057    i.vPortExitCritical  port.o
    0x000035ac   0x000035ac   0x00000090   Code   RO         2124    i.vPortFree         heap_4.o
    0x0000363c   0x0000363c   0x0000002c   Code   RO         2058    i.vPortSetupTimerInterrupt  port.o
    0x00003668   0x00003668   0x00000018   Code   RO         2059    i.vPortYield        port.o
    0x00003680   0x00003680   0x0000002c   Code   RO         1122    i.vQueueAddToRegistry  queue.o
    0x000036ac   0x000036ac   0x0000004c   Code   RO         1126    i.vQueueWaitForMessageRestricted  queue.o
    0x000036f8   0x000036f8   0x00000038   Code   RO         2229    i.vRegisterSampleCLICommands  sample-cli-commands.o
    0x00003730   0x00003730   0x00000044   Code   RO         1538    i.vTaskDelay        tasks.o
    0x00003774   0x00003774   0x00000084   Code   RO         1542    i.vTaskGetInfo      tasks.o
    0x000037f8   0x000037f8   0x000000c0   Code   RO         1543    i.vTaskGetRunTimeStats  tasks.o
    0x000038b8   0x000038b8   0x00000018   Code   RO         1544    i.vTaskInternalSetTimeOutState  tasks.o
    0x000038d0   0x000038d0   0x000000d0   Code   RO         1545    i.vTaskList         tasks.o
    0x000039a0   0x000039a0   0x0000000c   Code   RO         1546    i.vTaskMissedYield  tasks.o
    0x000039ac   0x000039ac   0x0000002c   Code   RO         1547    i.vTaskPlaceOnEventList  tasks.o
    0x000039d8   0x000039d8   0x00000034   Code   RO         1548    i.vTaskPlaceOnEventListRestricted  tasks.o
    0x00003a0c   0x00003a0c   0x00000088   Code   RO         1556    i.vTaskStartScheduler  tasks.o
    0x00003a94   0x00003a94   0x00000010   Code   RO         1558    i.vTaskSuspendAll   tasks.o
    0x00003aa4   0x00003aa4   0x000000c0   Code   RO         1559    i.vTaskSwitchContext  tasks.o
    0x00003b64   0x00003b64   0x0000000c   Code   RO         2127    i.xPortGetFreeHeapSize  heap_4.o
    0x00003b70   0x00003b70   0x0000000c   Code   RO         2128    i.xPortGetMinimumEverFreeHeapSize  heap_4.o
    0x00003b7c   0x00003b7c   0x00000038   Code   RO         2060    i.xPortStartScheduler  port.o
    0x00003bb4   0x00003bb4   0x00000084   Code   RO         1131    i.xQueueGenericCreate  queue.o
    0x00003c38   0x00003c38   0x00000082   Code   RO         1132    i.xQueueGenericReset  queue.o
    0x00003cba   0x00003cba   0x0000017e   Code   RO         1133    i.xQueueGenericSend  queue.o
    0x00003e38   0x00003e38   0x000000f4   Code   RO         1134    i.xQueueGenericSendFromISR  queue.o
    0x00003f2c   0x00003f2c   0x00000138   Code   RO         1141    i.xQueueReceive     queue.o
    0x00004064   0x00004064   0x00000078   Code   RO         1561    i.xTaskCheckForTimeOut  tasks.o
    0x000040dc   0x000040dc   0x0000005c   Code   RO         1562    i.xTaskCreate       tasks.o
    0x00004138   0x00004138   0x00000024   Code   RO         1569    i.xTaskGetSchedulerState  tasks.o
    0x0000415c   0x0000415c   0x0000000c   Code   RO         1570    i.xTaskGetTickCount  tasks.o
    0x00004168   0x00004168   0x0000013c   Code   RO         1572    i.xTaskIncrementTick  tasks.o
    0x000042a4   0x000042a4   0x00000088   Code   RO         1573    i.xTaskPriorityDisinherit  tasks.o
    0x0000432c   0x0000432c   0x00000088   Code   RO         1575    i.xTaskRemoveFromEventList  tasks.o
    0x000043b4   0x000043b4   0x000000f0   Code   RO         1576    i.xTaskResumeAll    tasks.o
    0x000044a4   0x000044a4   0x00000048   Code   RO         1919    i.xTimerCreateTimerTask  timers.o
    0x000044ec   0x000044ec   0x00000074   Code   RO         1920    i.xTimerGenericCommand  timers.o
    0x00004560   0x00004560   0x00000010   Data   RO         2183    .constdata          freertos_cli.o
    0x00004570   0x00004570   0x00000050   Data   RO         2230    .constdata          sample-cli-commands.o
    0x000045c0   0x000045c0   0x00000035   Data   RO         2184    .conststring        freertos_cli.o
    0x000045f5   0x000045f5   0x00000003   PAD
    0x000045f8   0x000045f8   0x000002a3   Data   RO         2231    .conststring        sample-cli-commands.o
    0x0000489b   0x0000489b   0x00000001   PAD
    0x0000489c   0x0000489c   0x00000020   Data   RO         4082    Region$$Table       anon$$obj.o


    Execution Region RW_IRAM1 (Exec base: 0x20000000, Load base: 0x000048bc, Size: 0x00006b78, Max: 0x00008000, ABSOLUTE, COMPRESSED[0x00000058])

    Exec Addr    Load Addr    Size         Type   Attr      Idx    E Section Name        Object

    0x20000000   COMPRESSED   0x00000004   Data   RW            5    .data               sl_main.o
    0x20000004   COMPRESSED   0x00000005   Data   RW          210    .data               sl_niv.o
    0x20000009   COMPRESSED   0x00000001   PAD
    0x2000000a   COMPRESSED   0x00000010   Data   RW          442    .data               usertask.o
    0x2000001a   COMPRESSED   0x00000002   PAD
    0x2000001c   COMPRESSED   0x00000048   Data   RW         1579    .data               tasks.o
    0x20000064   COMPRESSED   0x00000014   Data   RW         1926    .data               timers.o
    0x20000078   COMPRESSED   0x00000004   Data   RW         2061    .data               port.o
    0x2000007c   COMPRESSED   0x00000020   Data   RW         2130    .data               heap_4.o
    0x2000009c   COMPRESSED   0x00000014   Data   RW         2185    .data               freertos_cli.o
    0x200000b0   COMPRESSED   0x00000008   Data   RW         2232    .data               sample-cli-commands.o
    0x200000b8   COMPRESSED   0x0000001c   Data   RW         2431    .data               system_sc32f58128.o
    0x200000d4   COMPRESSED   0x00000034   Data   RW         3178    .data               sc32f58128_pwm.o
    0x20000108   COMPRESSED   0x00000018   Data   RW         3275    .data               sc32f58128_spi.o
    0x20000120   COMPRESSED   0x0000000c   Data   RW         3363    .data               sc32f58128_timer.o
    0x2000012c        -       0x000000ac   Zero   RW          798    .bss                bsp_iic.o
    0x200001d8        -       0x00000010   Zero   RW          856    .bss                bsp_spi.o
    0x200001e8        -       0x00000040   Zero   RW         1148    .bss                queue.o
    0x20000228        -       0x000000c8   Zero   RW         1578    .bss                tasks.o
    0x200002f0        -       0x00000028   Zero   RW         1925    .bss                timers.o
    0x20000318        -       0x00006400   Zero   RW         2129    .bss                heap_4.o
    0x20006718        -       0x00000060   Zero   RW         3955    .bss                c_p.l(libspace.o)
    0x20006778        -       0x00000100   Zero   RW         2419    HEAP                startup_sc32f58128.o
    0x20006878        -       0x00000300   Zero   RW         2418    STACK               startup_sc32f58128.o


==============================================================================

Image component sizes


      Code (inc. data)   RO Data    RW Data    ZI Data      Debug   Object Name

       970         50          0          0          0       3598   bsp_gpio.o
         0          0          0          0        172       1120   bsp_iic.o
       572         12          0          0          0       1228   bsp_pwm.o
       216         24          0          0         16       7855   bsp_spi.o
       638         56          0          0          0      19248   devinit.o
         0          0          0          0          0       2372   event_groups.o
       250         14         69         20          0       4602   freertos_cli.o
       720         82          0         32      25600       5096   heap_4.o
       150          0          0          0          0       2974   list.o
       418         58          0          4          0       6419   port.o
      1900          4          0          0         64      15670   queue.o
       708        198        755          8          0       6061   sample-cli-commands.o
       688        104          0          0          0       7138   sc32f58128_gpio.o
       160          6          0          0          0        643   sc32f58128_iic.o
         0          0          0         52          0       3430   sc32f58128_pwm.o
        48          0          0          0          0         76   sc32f58128_qep.o
       556         22          0         24          0       4641   sc32f58128_spi.o
       832         94          0          0          0       4581   sc32f58128_sysclkcfg.o
       256         14          0         12          0       1630   sc32f58128_timer.o
        64         20          0          4          0      93433   sl_main.o
       938         48          0          5          0      13925   sl_niv.o
       156         72        192          0       1024        780   startup_sc32f58128.o
       488         82          0         28          0       1996   system_sc32f58128.o
      3406        462          0         72        200      30805   tasks.o
      1146        108          0         20         40      13311   timers.o
        44         10          0         16          0       1035   usertask.o

    ----------------------------------------------------------------------
     15352       1540       1052        300      27116     253667   Object Totals
         0          0         32          0          0          0   (incl. Generated)
        28          0          4          3          0          0   (incl. Padding)

    ----------------------------------------------------------------------

      Code (inc. data)   RO Data    RW Data    ZI Data      Debug   Library Member Name

        26          0          0          0          0         72   dbgtool.o
        86          0          0          0          0          0   __dczerorl2.o
         8          0          0          0          0         68   __main.o
       108          0          0          0          0         76   __printf.o
         0          0          0          0          0          0   __rtentry.o
        12          0          0          0          0          0   __rtentry2.o
         6          0          0          0          0          0   __rtentry4.o
        60          8          0          0          0          0   __scatter.o
        28          0          0          0          0          0   __scatter_zi.o
        10          0          0          0          0          0   _printf_c.o
        46          0          0          0          0        100   _printf_char.o
        48          6          0          0          0         88   _printf_char_common.o
        10          0          0          0          0          0   _printf_d.o
       108         18          0          0          0         76   _printf_dec.o
       176          0          0          0          0         84   _printf_intcommon.o
         2          0          0          0          0          0   _printf_percent.o
         4          0          0          0          0          0   _printf_percent_end.o
        82          0          0          0          0         72   _printf_str.o
        10          0          0          0          0          0   _printf_u.o
        10          0          0          0          0         60   _sputc.o
        18          0          0          0          0         68   aeabi_memset.o
       346          0          0          0          0         92   aeabi_sdiv.o
        16          0          0          0          0         68   exit.o
         6          0          0          0          0        136   heapauxi.o
         0          0          0          0          0          0   indicate_semi.o
         2          0          0          0          0          0   libinit.o
         2          0          0          0          0          0   libinit2.o
         2          0          0          0          0          0   libshutdown.o
         2          0          0          0          0          0   libshutdown2.o
         8          4          0          0         96         68   libspace.o
       258          0          0          0          0         88   lludiv.o
        40          4          0          0          0         84   noretval__2sprintf.o
        64          0          0          0          0        108   rt_memclr.o
       186          0          0          0          0        144   rt_memcpy.o
         2          0          0          0          0          0   rtexit.o
        10          0          0          0          0          0   rtexit2.o
        40          0          0          0          0         60   rtudiv10.o
        76          6          0          0          0         72   strcpy.o
        68          6          0          0          0         72   strlen.o
        36          0          0          0          0         68   strncat.o
       108          4          0          0          0         76   strncpy.o
        12          4          0          0          0         60   sys_exit.o
        62          0          0          0          0         80   sys_stackheap_outer.o
         2          0          0          0          0         68   use_no_semi.o

    ----------------------------------------------------------------------
      2216         60          0          0         96       2108   Library Totals
        10          0          0          0          0          0   (incl. Padding)

    ----------------------------------------------------------------------

      Code (inc. data)   RO Data    RW Data    ZI Data      Debug   Library Name

        26          0          0          0          0         72   OSC.lib
      2180         60          0          0         96       2036   c_p.l

    ----------------------------------------------------------------------
      2216         60          0          0         96       2108   Library Totals

    ----------------------------------------------------------------------

==============================================================================


      Code (inc. data)   RO Data    RW Data    ZI Data      Debug   

     17568       1600       1052        300      27212     247391   Grand Totals
     17568       1600       1052         88      27212     247391   ELF Image Totals (compressed)
     17568       1600       1052         88          0          0   ROM Totals

==============================================================================

    Total RO  Size (Code + RO Data)                18620 (  18.18kB)
    Total RW  Size (RW Data + ZI Data)             27512 (  26.87kB)
    Total ROM Size (Code + RO Data + RW Data)      18708 (  18.27kB)

==============================================================================

